; generated by ARM C/C++ Compiler, 4.1 [Build 894]
; commandline ArmCC [--list --split_sections --debug -c --asm --interleave -o.\STM324xG-EVAL\app.o --asm_dir=.\STM324xG-EVAL\ --list_dir=.\STM324xG-EVAL\ --depend=.\STM324xG-EVAL\app.d --cpu=Cortex-M4.fp --apcs=interwork -O3 -I..\ -I..\inc -I..\..\..\..\..\Libraries\CMSIS\Device\ST\STM32F4xx\Include -I..\..\..\..\..\Libraries\STM32F4xx_StdPeriph_Driver\inc -I..\..\..\..\..\Utilities\STM32_EVAL -I..\..\..\..\..\Utilities\STM32_EVAL\Common -I..\..\..\..\..\Utilities\STM32_EVAL\STM3240_41_G_EVAL -IC:\Keil\ARM\RV31\Inc -IC:\Keil\ARM\CMSIS\Include -IC:\Keil\ARM\Inc\ST\STM32F4xx -D__MICROLIB -DUSE_STDPERIPH_DRIVER -DSTM32F4XX -DUSE_STM324xG_EVAL --omf_browse=.\STM324xG-EVAL\app.crf ..\src\app.c]
                          THUMB

                          AREA ||i.Delay||, CODE, READONLY, ALIGN=2

                  Delay PROC
;;;174    */
;;;175    void Delay(uint32_t nTime)
000000  4902              LDR      r1,|L1.12|
;;;176    {
;;;177      TimingDelay = nTime;
000002  6008              STR      r0,[r1,#0]  ; TimingDelay
                  |L1.4|
;;;178    
;;;179      while(TimingDelay != 0);
000004  6808              LDR      r0,[r1,#0]  ; TimingDelay
000006  2800              CMP      r0,#0
000008  d1fc              BNE      |L1.4|
;;;180    }
00000a  4770              BX       lr
;;;181    
                          ENDP

                  |L1.12|
                          DCD      ||.data||

                          AREA ||i.TimingDelay_Decrement||, CODE, READONLY, ALIGN=2

                  TimingDelay_Decrement PROC
;;;186    */
;;;187    void TimingDelay_Decrement(void)
000000  4803              LDR      r0,|L2.16|
;;;188    {
;;;189      if (TimingDelay != 0x00)
000002  6801              LDR      r1,[r0,#0]  ; TimingDelay
000004  2900              CMP      r1,#0
000006  d002              BEQ      |L2.14|
;;;190      { 
;;;191        TimingDelay--;
000008  6801              LDR      r1,[r0,#0]  ; TimingDelay
00000a  1e49              SUBS     r1,r1,#1
00000c  6001              STR      r1,[r0,#0]  ; TimingDelay
                  |L2.14|
;;;192      }
;;;193    }
00000e  4770              BX       lr
;;;194    
                          ENDP

                  |L2.16|
                          DCD      ||.data||

                          AREA ||i.main||, CODE, READONLY, ALIGN=2

                  main PROC
;;;95     */
;;;96     int main(void)
000000  f7fffffe          BL       STM324xG_LCD_Init
;;;97     {
;;;98       /*!< At this stage the microcontroller clock setting is already configured, 
;;;99       this is done through SystemInit() function which is called from startup
;;;100      file (startup_stm32fxxx_xx.s) before to branch to application main.
;;;101      To reconfigure the default setting of SystemInit() function, refer to
;;;102      system_stm32fxxx.c file
;;;103      */  
;;;104    
;;;105      /* Initialize the LCD */
;;;106    #if defined (USE_STM322xG_EVAL)
;;;107      STM322xG_LCD_Init();
;;;108    #elif defined(USE_STM324xG_EVAL)
;;;109      STM324xG_LCD_Init();
;;;110    #elif defined (USE_STM3210C_EVAL)
;;;111      STM3210C_LCD_Init();
;;;112    #else
;;;113     #error "Missing define: Evaluation board (ie. USE_STM322xG_EVAL)"
;;;114    #endif
;;;115    
;;;116      LCD_LOG_Init();
000004  f7fffffe          BL       LCD_LOG_Init
;;;117      
;;;118      LCD_LOG_SetHeader(" Binary image template ");
000008  a019              ADR      r0,|L3.112|
00000a  f7fffffe          BL       LCD_LOG_SetHeader
;;;119      LCD_UsrLog("> Systick template example started.\n"); 
00000e  491e              LDR      r1,|L3.136|
000010  f64f70ff          MOV      r0,#0xffff
000014  8008              STRH     r0,[r1,#0]
000016  a01d              ADR      r0,|L3.140|
000018  f7fffffe          BL       __2printf
;;;120      LCD_LOG_SetFooter ("     Binary image template " ); 
00001c  a025              ADR      r0,|L3.180|
00001e  f7fffffe          BL       LCD_LOG_SetFooter
;;;121      
;;;122      /* Configure the LEDs */
;;;123      STM_EVAL_LEDInit(LED1);
000022  2000              MOVS     r0,#0
000024  f7fffffe          BL       STM_EVAL_LEDInit
;;;124    //  STM_EVAL_LEDInit(LED2);
;;;125    //  STM_EVAL_LEDInit(LED3);
;;;126    //  STM_EVAL_LEDInit(LED4);  
;;;127    
;;;128       /* Set the Vector Table base location at the application start address
;;;129          (this is already done in system_stm32fxxx.c file) */   
;;;130    //#ifdef STM32F2XX
;;;131    //  /* Set the Vector Table base location at 0xC000 */ 
;;;132    //  NVIC_SetVectorTable(NVIC_VectTab_FLASH, 0xC000);
;;;133    //#elif defined(STM32F4XX)
;;;134    //  /* Set the Vector Table base location at 0xC000 */ 
;;;135    //  NVIC_SetVectorTable(NVIC_VectTab_FLASH, 0xC000);
;;;136    //#elif defined(STM32F10X_CL)
;;;137    //  /* Set the Vector Table base location at 0x8000 */ 
;;;138    //  NVIC_SetVectorTable(NVIC_VectTab_FLASH, 0x8000);
;;;139    //#endif /* STM32F2XX */
;;;140      
;;;141      /* Setup SysTick Timer for 1 msec interrupts  */
;;;142      if (SysTick_Config(SystemCoreClock / 1000))
000028  4829              LDR      r0,|L3.208|
00002a  f44f717a          MOV      r1,#0x3e8
00002e  6800              LDR      r0,[r0,#0]  ; SystemCoreClock
000030  fbb0f0f1          UDIV     r0,r0,r1
000034  f1b07f80          CMP      r0,#0x1000000
000038  d219              BCS      |L3.110|
00003a  f020417f          BIC      r1,r0,#0xff000000
00003e  f04f20e0          MOV      r0,#0xe000e000
000042  1e49              SUBS     r1,r1,#1
000044  6141              STR      r1,[r0,#0x14]
000046  4a23              LDR      r2,|L3.212|
000048  21f0              MOVS     r1,#0xf0
00004a  7011              STRB     r1,[r2,#0]
00004c  2100              MOVS     r1,#0
00004e  6181              STR      r1,[r0,#0x18]
000050  2107              MOVS     r1,#7
000052  6101              STR      r1,[r0,#0x10]
                  |L3.84|
;;;143      { 
;;;144        /* Capture error */ 
;;;145        while (1);
;;;146      }
;;;147      
;;;148      while (1)
;;;149      {
;;;150        /* Toggle all leds */
;;;151        STM_EVAL_LEDToggle(LED1);
000054  2000              MOVS     r0,#0
000056  f7fffffe          BL       STM_EVAL_LEDToggle
;;;152    //    STM_EVAL_LEDToggle(LED2);
;;;153    //    STM_EVAL_LEDToggle(LED3);
;;;154    //    STM_EVAL_LEDToggle(LED4);
;;;155        
;;;156        /* Insert 200 ms delay */
;;;157        Delay(200);
00005a  20c8              MOVS     r0,#0xc8
00005c  f7fffffe          BL       Delay
;;;158        
;;;159        /* Toggle all leds */
;;;160        STM_EVAL_LEDToggle(LED1);
000060  2000              MOVS     r0,#0
000062  f7fffffe          BL       STM_EVAL_LEDToggle
;;;161    //    STM_EVAL_LEDToggle(LED2);
;;;162    //    STM_EVAL_LEDToggle(LED3);
;;;163    //    STM_EVAL_LEDToggle(LED4);
;;;164        
;;;165        /* Insert 200 ms delay */
;;;166        Delay(200);
000066  20c8              MOVS     r0,#0xc8
000068  f7fffffe          BL       Delay
00006c  e7f2              B        |L3.84|
                  |L3.110|
00006e  e7fe              B        |L3.110|
;;;167      }
;;;168    } 
;;;169    
                          ENDP

                  |L3.112|
000070  2042696e          DCB      " Binary image template ",0
000074  61727920
000078  696d6167
00007c  65207465
000080  6d706c61
000084  74652000
                  |L3.136|
                          DCD      LCD_LineColor
                  |L3.140|
00008c  3e205379          DCB      "> Systick template example started.\n",0
000090  73746963
000094  6b207465
000098  6d706c61
00009c  74652065
0000a0  78616d70
0000a4  6c652073
0000a8  74617274
0000ac  65642e0a
0000b0  00      
0000b1  00                DCB      0
0000b2  00                DCB      0
0000b3  00                DCB      0
                  |L3.180|
0000b4  20202020          DCB      "     Binary image template ",0
0000b8  2042696e
0000bc  61727920
0000c0  696d6167
0000c4  65207465
0000c8  6d706c61
0000cc  74652000
                  |L3.208|
                          DCD      SystemCoreClock
                  |L3.212|
                          DCD      0xe000ed23

                          AREA ||.data||, DATA, ALIGN=2

                  TimingDelay
                          DCD      0x00000000

;*** Start embedded assembler ***

#line 1 "..\\src\\app.c"
	AREA ||.rev16_text||, CODE, READONLY
	THUMB
	EXPORT |__asm___5_app_c_main____REV16|
#line 114 "C:\\Keil\\ARM\\CMSIS\\Include\\core_cmInstr.h"
|__asm___5_app_c_main____REV16| PROC
#line 115

 rev16 r0, r0
 bx lr
	ENDP
	AREA ||.revsh_text||, CODE, READONLY
	THUMB
	EXPORT |__asm___5_app_c_main____REVSH|
#line 128
|__asm___5_app_c_main____REVSH| PROC
#line 129

 revsh r0, r0
 bx lr
	ENDP

;*** End   embedded assembler ***

                  __ARM_use_no_argv EQU 0
