; generated by ARM C/C++ Compiler, 4.1 [Build 894]
; commandline ArmCC [--list --split_sections --debug -c --asm --interleave -o.\STM324xG-EVAL\stm324xg_eval_lcd.o --asm_dir=.\STM324xG-EVAL\ --list_dir=.\STM324xG-EVAL\ --depend=.\STM324xG-EVAL\stm324xg_eval_lcd.d --cpu=Cortex-M4.fp --apcs=interwork -O3 -I..\ -I..\inc -I..\..\..\..\..\Libraries\CMSIS\Device\ST\STM32F4xx\Include -I..\..\..\..\..\Libraries\STM32F4xx_StdPeriph_Driver\inc -I..\..\..\..\..\Utilities\STM32_EVAL -I..\..\..\..\..\Utilities\STM32_EVAL\Common -I..\..\..\..\..\Utilities\STM32_EVAL\STM3240_41_G_EVAL -IC:\Keil\ARM\RV31\Inc -IC:\Keil\ARM\CMSIS\Include -IC:\Keil\ARM\Inc\ST\STM32F4xx -D__MICROLIB -DUSE_STDPERIPH_DRIVER -DSTM32F4XX -DUSE_STM324xG_EVAL --omf_browse=.\STM324xG-EVAL\stm324xg_eval_lcd.crf ..\..\..\..\..\Utilities\STM32_EVAL\STM3240_41_G_EVAL\stm324xg_eval_lcd.c]
                          THUMB

                          AREA ||i.LCD_Clear||, CODE, READONLY, ALIGN=2

                  LCD_Clear PROC
;;;494      */
;;;495    void LCD_Clear(uint16_t Color)
000000  b530              PUSH     {r4,r5,lr}
;;;496    {
000002  4605              MOV      r5,r0
;;;497      uint32_t index = 0;
000004  2400              MOVS     r4,#0
;;;498      
;;;499      LCD_SetCursor(0x00, 0x013F); 
000006  f240113f          MOV      r1,#0x13f
00000a  4620              MOV      r0,r4
00000c  f7fffffe          BL       LCD_SetCursor
000010  4905              LDR      r1,|L1.40|
000012  2022              MOVS     r0,#0x22
000014  8008              STRH     r0,[r1,#0]
;;;500      LCD_WriteRAM_Prepare(); /* Prepare to write GRAM */
;;;501      for(index = 0; index < 76800; index++)
;;;502      {
;;;503    //    LCD->LCD_RAM = Color;
;;;504       	LCD_DAT16 = Color;
000016  4805              LDR      r0,|L1.44|
000018  f44f3196          MOV      r1,#0x12c00           ;501
                  |L1.28|
00001c  8005              STRH     r5,[r0,#0]
00001e  1c64              ADDS     r4,r4,#1              ;501
000020  428c              CMP      r4,r1                 ;501
000022  d3fb              BCC      |L1.28|
;;;505      }  
;;;506    }
000024  bd30              POP      {r4,r5,pc}
;;;507    
                          ENDP

000026  0000              DCW      0x0000
                  |L1.40|
                          DCD      0x60080000
                  |L1.44|
                          DCD      0x60100000

                          AREA ||i.LCD_ClearLine||, CODE, READONLY, ALIGN=2

                  LCD_ClearLine PROC
;;;476      */
;;;477    void LCD_ClearLine(uint16_t Line)
000000  b570              PUSH     {r4-r6,lr}
;;;478    {
000002  4606              MOV      r6,r0
;;;479      uint16_t refcolumn = LCD_PIXEL_WIDTH - 1;
000004  f240143f          MOV      r4,#0x13f
;;;480      /* Send the string character by character on lCD */
;;;481      while (((refcolumn + 1)& 0xFFFF) >= LCD_Currentfonts->Width)
;;;482      {
;;;483        /* Display one character on LCD */
;;;484        LCD_DisplayChar(Line, refcolumn, ' ');
;;;485        /* Decrement the column position by 16 */
;;;486        refcolumn -= LCD_Currentfonts->Width;
000008  4d08              LDR      r5,|L2.44|
00000a  e008              B        |L2.30|
                  |L2.12|
00000c  2220              MOVS     r2,#0x20              ;484
00000e  4621              MOV      r1,r4                 ;484
000010  4630              MOV      r0,r6                 ;484
000012  f7fffffe          BL       LCD_DisplayChar
000016  6868              LDR      r0,[r5,#4]  ; LCD_Currentfonts
000018  8880              LDRH     r0,[r0,#4]
00001a  1a20              SUBS     r0,r4,r0
00001c  b284              UXTH     r4,r0
                  |L2.30|
00001e  6869              LDR      r1,[r5,#4]            ;481  ; LCD_Currentfonts
000020  1c60              ADDS     r0,r4,#1              ;481
000022  b280              UXTH     r0,r0                 ;481
000024  8889              LDRH     r1,[r1,#4]            ;481
000026  4288              CMP      r0,r1                 ;481
000028  d2f0              BCS      |L2.12|
;;;487      }
;;;488    }
00002a  bd70              POP      {r4-r6,pc}
;;;489    
                          ENDP

                  |L2.44|
                          DCD      ||.data||

                          AREA ||i.LCD_ClosedPolyLine||, CODE, READONLY, ALIGN=1

                  LCD_ClosedPolyLine PROC
;;;1027     */
;;;1028   void LCD_ClosedPolyLine(pPoint Points, uint16_t PointCount)
000000  b570              PUSH     {r4-r6,lr}
;;;1029   {
000002  4604              MOV      r4,r0
000004  460d              MOV      r5,r1
;;;1030     LCD_PolyLine(Points, PointCount);
000006  f7fffffe          BL       LCD_PolyLine
;;;1031     LCD_DrawUniLine(Points->X, Points->Y, (Points+PointCount-1)->X, (Points+PointCount-1)->Y);
00000a  eb040085          ADD      r0,r4,r5,LSL #2
00000e  f1a00004          SUB      r0,r0,#4
000012  8861              LDRH     r1,[r4,#2]
000014  8843              LDRH     r3,[r0,#2]
000016  8802              LDRH     r2,[r0,#0]
000018  8820              LDRH     r0,[r4,#0]
00001a  e8bd4070          POP      {r4-r6,lr}
00001e  f7ffbffe          B.W      LCD_DrawUniLine
;;;1032   }
;;;1033   
                          ENDP


                          AREA ||i.LCD_ClosedPolyLineRelative||, CODE, READONLY, ALIGN=1

                  LCD_ClosedPolyLineRelative PROC
;;;1050     */
;;;1051   void LCD_ClosedPolyLineRelative(pPoint Points, uint16_t PointCount)
000000  2201              MOVS     r2,#1
;;;1052   {
;;;1053     LCD_PolyLineRelativeClosed(Points, PointCount, 1);
000002  f7ffbffe          B.W      LCD_PolyLineRelativeClosed
;;;1054   }
;;;1055   
                          ENDP


                          AREA ||i.LCD_CtrlLinesConfig||, CODE, READONLY, ALIGN=2

                  LCD_CtrlLinesConfig PROC
;;;1284     */
;;;1285   void LCD_CtrlLinesConfig(void)
000000  b57c              PUSH     {r2-r6,lr}
;;;1286   {
;;;1287     GPIO_InitTypeDef GPIO_InitStructure;
;;;1288   
;;;1289     /* Enable GPIOD, GPIOE, GPIOF, GPIOG and AFIO clocks */
;;;1290     RCC_AHB1PeriphClockCmd(RCC_AHB1Periph_GPIOC | RCC_AHB1Periph_GPIOD | RCC_AHB1Periph_GPIOG | 
000002  2101              MOVS     r1,#1
000004  207c              MOVS     r0,#0x7c
000006  f7fffffe          BL       RCC_AHB1PeriphClockCmd
;;;1291                            RCC_AHB1Periph_GPIOE | RCC_AHB1Periph_GPIOF, ENABLE);
;;;1292   
;;;1293   /*-- GPIO Configuration ------------------------------------------------------*/
;;;1294     /* SRAM Data lines,  NOE and NWE configuration */
;;;1295     GPIO_InitStructure.GPIO_Pin = GPIO_Pin_0 | GPIO_Pin_1 | GPIO_Pin_8 | GPIO_Pin_9 |
00000a  f24c7033          MOV      r0,#0xc733
;;;1296                                   GPIO_Pin_10 | GPIO_Pin_14 | GPIO_Pin_15 |
;;;1297                                   GPIO_Pin_4 |GPIO_Pin_5;;
;;;1298     GPIO_InitStructure.GPIO_Mode = GPIO_Mode_AF;
00000e  9000              STR      r0,[sp,#0]
000010  2002              MOVS     r0,#2
000012  f88d0004          STRB     r0,[sp,#4]
;;;1299     GPIO_InitStructure.GPIO_Speed = GPIO_Speed_50MHz;
000016  f88d0005          STRB     r0,[sp,#5]
;;;1300     GPIO_InitStructure.GPIO_OType = GPIO_OType_PP;
00001a  2000              MOVS     r0,#0
00001c  f88d0006          STRB     r0,[sp,#6]
;;;1301     GPIO_InitStructure.GPIO_PuPd  = GPIO_PuPd_NOPULL;
;;;1302   
;;;1303     GPIO_Init(GPIOD, &GPIO_InitStructure);
000020  4d4d              LDR      r5,|L5.344|
000022  f88d0007          STRB     r0,[sp,#7]            ;1301
000026  4669              MOV      r1,sp
000028  4628              MOV      r0,r5
00002a  f7fffffe          BL       GPIO_Init
;;;1304     GPIO_PinAFConfig(GPIOD, GPIO_PinSource0, GPIO_AF_FSMC);
00002e  220c              MOVS     r2,#0xc
000030  2100              MOVS     r1,#0
000032  4628              MOV      r0,r5
000034  f7fffffe          BL       GPIO_PinAFConfig
;;;1305     GPIO_PinAFConfig(GPIOD, GPIO_PinSource1, GPIO_AF_FSMC);
000038  220c              MOVS     r2,#0xc
00003a  2101              MOVS     r1,#1
00003c  4628              MOV      r0,r5
00003e  f7fffffe          BL       GPIO_PinAFConfig
;;;1306     GPIO_PinAFConfig(GPIOD, GPIO_PinSource4, GPIO_AF_FSMC);
000042  220c              MOVS     r2,#0xc
000044  2104              MOVS     r1,#4
000046  4628              MOV      r0,r5
000048  f7fffffe          BL       GPIO_PinAFConfig
;;;1307     GPIO_PinAFConfig(GPIOD, GPIO_PinSource5, GPIO_AF_FSMC);
00004c  220c              MOVS     r2,#0xc
00004e  2105              MOVS     r1,#5
000050  4628              MOV      r0,r5
000052  f7fffffe          BL       GPIO_PinAFConfig
;;;1308     GPIO_PinAFConfig(GPIOD, GPIO_PinSource8, GPIO_AF_FSMC);
000056  220c              MOVS     r2,#0xc
000058  2108              MOVS     r1,#8
00005a  4628              MOV      r0,r5
00005c  f7fffffe          BL       GPIO_PinAFConfig
;;;1309     GPIO_PinAFConfig(GPIOD, GPIO_PinSource9, GPIO_AF_FSMC);
000060  220c              MOVS     r2,#0xc
000062  2109              MOVS     r1,#9
000064  4628              MOV      r0,r5
000066  f7fffffe          BL       GPIO_PinAFConfig
;;;1310     GPIO_PinAFConfig(GPIOD, GPIO_PinSource10, GPIO_AF_FSMC);
00006a  220c              MOVS     r2,#0xc
00006c  210a              MOVS     r1,#0xa
00006e  4628              MOV      r0,r5
000070  f7fffffe          BL       GPIO_PinAFConfig
;;;1311     GPIO_PinAFConfig(GPIOD, GPIO_PinSource14, GPIO_AF_FSMC);
000074  220c              MOVS     r2,#0xc
000076  210e              MOVS     r1,#0xe
000078  4628              MOV      r0,r5
00007a  f7fffffe          BL       GPIO_PinAFConfig
;;;1312     GPIO_PinAFConfig(GPIOD, GPIO_PinSource15, GPIO_AF_FSMC);
00007e  220c              MOVS     r2,#0xc
000080  210f              MOVS     r1,#0xf
000082  4628              MOV      r0,r5
000084  f7fffffe          BL       GPIO_PinAFConfig
;;;1313   
;;;1314     GPIO_InitStructure.GPIO_Pin = GPIO_Pin_7 | GPIO_Pin_8 | GPIO_Pin_9 | GPIO_Pin_10 |
000088  f64f7080          MOV      r0,#0xff80
;;;1315                                   GPIO_Pin_11 | GPIO_Pin_12 | GPIO_Pin_13 | GPIO_Pin_14 | 
;;;1316                                   GPIO_Pin_15;
;;;1317     GPIO_Init(GPIOE, &GPIO_InitStructure);
00008c  4c33              LDR      r4,|L5.348|
00008e  9000              STR      r0,[sp,#0]
000090  4669              MOV      r1,sp
000092  4620              MOV      r0,r4
000094  f7fffffe          BL       GPIO_Init
;;;1318   
;;;1319     GPIO_PinAFConfig(GPIOE, GPIO_PinSource7 , GPIO_AF_FSMC);
000098  220c              MOVS     r2,#0xc
00009a  2107              MOVS     r1,#7
00009c  4620              MOV      r0,r4
00009e  f7fffffe          BL       GPIO_PinAFConfig
;;;1320     GPIO_PinAFConfig(GPIOE, GPIO_PinSource8 , GPIO_AF_FSMC);
0000a2  220c              MOVS     r2,#0xc
0000a4  2108              MOVS     r1,#8
0000a6  4620              MOV      r0,r4
0000a8  f7fffffe          BL       GPIO_PinAFConfig
;;;1321     GPIO_PinAFConfig(GPIOE, GPIO_PinSource9 , GPIO_AF_FSMC);
0000ac  220c              MOVS     r2,#0xc
0000ae  2109              MOVS     r1,#9
0000b0  4620              MOV      r0,r4
0000b2  f7fffffe          BL       GPIO_PinAFConfig
;;;1322     GPIO_PinAFConfig(GPIOE, GPIO_PinSource10 , GPIO_AF_FSMC);
0000b6  220c              MOVS     r2,#0xc
0000b8  210a              MOVS     r1,#0xa
0000ba  4620              MOV      r0,r4
0000bc  f7fffffe          BL       GPIO_PinAFConfig
;;;1323     GPIO_PinAFConfig(GPIOE, GPIO_PinSource11 , GPIO_AF_FSMC);
0000c0  220c              MOVS     r2,#0xc
0000c2  210b              MOVS     r1,#0xb
0000c4  4620              MOV      r0,r4
0000c6  f7fffffe          BL       GPIO_PinAFConfig
;;;1324     GPIO_PinAFConfig(GPIOE, GPIO_PinSource12 , GPIO_AF_FSMC);
0000ca  220c              MOVS     r2,#0xc
0000cc  4611              MOV      r1,r2
0000ce  4620              MOV      r0,r4
0000d0  f7fffffe          BL       GPIO_PinAFConfig
;;;1325     GPIO_PinAFConfig(GPIOE, GPIO_PinSource13 , GPIO_AF_FSMC);
0000d4  220c              MOVS     r2,#0xc
0000d6  210d              MOVS     r1,#0xd
0000d8  4620              MOV      r0,r4
0000da  f7fffffe          BL       GPIO_PinAFConfig
;;;1326     GPIO_PinAFConfig(GPIOE, GPIO_PinSource14 , GPIO_AF_FSMC);
0000de  220c              MOVS     r2,#0xc
0000e0  210e              MOVS     r1,#0xe
0000e2  4620              MOV      r0,r4
0000e4  f7fffffe          BL       GPIO_PinAFConfig
;;;1327     GPIO_PinAFConfig(GPIOE, GPIO_PinSource15 , GPIO_AF_FSMC);
0000e8  220c              MOVS     r2,#0xc
0000ea  210f              MOVS     r1,#0xf
0000ec  4620              MOV      r0,r4
0000ee  f7fffffe          BL       GPIO_PinAFConfig
;;;1328   
;;;1329     /* SRAM Address lines configuration PE3-A19 */
;;;1330     GPIO_InitStructure.GPIO_Pin = GPIO_Pin_3;
0000f2  2008              MOVS     r0,#8
;;;1331     GPIO_Init(GPIOE, &GPIO_InitStructure);  
0000f4  9000              STR      r0,[sp,#0]
0000f6  4669              MOV      r1,sp
0000f8  4620              MOV      r0,r4
0000fa  f7fffffe          BL       GPIO_Init
;;;1332     GPIO_PinAFConfig(GPIOE, GPIO_PinSource3, GPIO_AF_FSMC);	   
0000fe  220c              MOVS     r2,#0xc
000100  2103              MOVS     r1,#3
000102  4620              MOV      r0,r4
000104  f7fffffe          BL       GPIO_PinAFConfig
;;;1333   
;;;1334     /* NE1 configuration PD7 */
;;;1335     GPIO_InitStructure.GPIO_Pin = GPIO_Pin_7; 
000108  2080              MOVS     r0,#0x80
;;;1336   
;;;1337     GPIO_Init(GPIOD, &GPIO_InitStructure);
00010a  9000              STR      r0,[sp,#0]
00010c  4669              MOV      r1,sp
00010e  4628              MOV      r0,r5
000110  f7fffffe          BL       GPIO_Init
;;;1338     GPIO_PinAFConfig(GPIOD, GPIO_PinSource7, GPIO_AF_FSMC);
000114  220c              MOVS     r2,#0xc
000116  2107              MOVS     r1,#7
000118  4628              MOV      r0,r5
00011a  f7fffffe          BL       GPIO_PinAFConfig
;;;1339   
;;;1340     /* PE.2(LCD Backlight                                                       */
;;;1341     GPIOE->BSRRH    |=  (1UL <<   2);     /* Backlight off                      */
00011e  8b60              LDRH     r0,[r4,#0x1a]
000120  f0400004          ORR      r0,r0,#4
000124  8360              STRH     r0,[r4,#0x1a]
;;;1342     GPIOE->MODER    &= ~(3UL << 2*2);     /* Clear Bits                         */
000126  6820              LDR      r0,[r4,#0]
000128  f0200030          BIC      r0,r0,#0x30
00012c  6020              STR      r0,[r4,#0]
;;;1343     GPIOE->MODER    |=  (1UL << 2*2);     /* PC.2 is output                     */
00012e  6820              LDR      r0,[r4,#0]
000130  f0400010          ORR      r0,r0,#0x10
000134  6020              STR      r0,[r4,#0]
;;;1344     GPIOE->OTYPER   &= ~(1UL <<   2);     /* PC.2 is output Push-Pull           */
000136  6860              LDR      r0,[r4,#4]
000138  f0200004          BIC      r0,r0,#4
00013c  6060              STR      r0,[r4,#4]
;;;1345     GPIOE->OSPEEDR  &= ~(3UL << 2*2);     /* Clear Bits                         */
00013e  68a0              LDR      r0,[r4,#8]
000140  f0200030          BIC      r0,r0,#0x30
000144  60a0              STR      r0,[r4,#8]
;;;1346     GPIOE->OSPEEDR  |=  (2UL << 2*2);     /* PC.2 is 50MHz Fast Speed           */
000146  68a0              LDR      r0,[r4,#8]
000148  f0400020          ORR      r0,r0,#0x20
00014c  60a0              STR      r0,[r4,#8]
;;;1347     GPIOE->BSRRL 	  |=  (1UL <<   2);		/* Backlight on                       */
00014e  8b20              LDRH     r0,[r4,#0x18]
000150  f0400004          ORR      r0,r0,#4
000154  8320              STRH     r0,[r4,#0x18]
;;;1348   }
000156  bd7c              POP      {r2-r6,pc}
;;;1349   
                          ENDP

                  |L5.344|
                          DCD      0x40020c00
                  |L5.348|
                          DCD      0x40021000

                          AREA ||i.LCD_DeInit||, CODE, READONLY, ALIGN=2

                  LCD_DeInit PROC
;;;120      */
;;;121    void LCD_DeInit(void)
000000  b57c              PUSH     {r2-r6,lr}
;;;122    { 
;;;123      GPIO_InitTypeDef GPIO_InitStructure;
;;;124    
;;;125      /*!< LCD Display Off */
;;;126      LCD_DisplayOff();
000002  f7fffffe          BL       LCD_DisplayOff
;;;127    
;;;128      /* BANK 1 (of NOR/SRAM Bank 1~4) is disabled */
;;;129      FSMC_NORSRAMCmd(FSMC_Bank1_NORSRAM1, ENABLE);
000006  2101              MOVS     r1,#1
000008  2000              MOVS     r0,#0
00000a  f7fffffe          BL       FSMC_NORSRAMCmd
;;;130      
;;;131      /*!< LCD_SPI DeInit */
;;;132      FSMC_NORSRAMDeInit(FSMC_Bank1_NORSRAM1);
00000e  2000              MOVS     r0,#0
000010  f7fffffe          BL       FSMC_NORSRAMDeInit
;;;133       
;;;134    /*-- GPIO Configuration ------------------------------------------------------*/
;;;135      /* SRAM Data lines configuration */
;;;136      GPIO_InitStructure.GPIO_Pin = GPIO_Pin_0 | GPIO_Pin_1 | GPIO_Pin_8 | GPIO_Pin_9 |
000014  f24c7003          MOV      r0,#0xc703
;;;137                                    GPIO_Pin_10 | GPIO_Pin_14 | GPIO_Pin_15;
;;;138      GPIO_InitStructure.GPIO_Mode = GPIO_Mode_IN;
000018  9000              STR      r0,[sp,#0]
00001a  2000              MOVS     r0,#0
00001c  f88d0004          STRB     r0,[sp,#4]
;;;139      GPIO_InitStructure.GPIO_PuPd  = GPIO_PuPd_NOPULL;
;;;140      GPIO_Init(GPIOD, &GPIO_InitStructure);
000020  4c7f              LDR      r4,|L6.544|
000022  f88d0007          STRB     r0,[sp,#7]            ;139
000026  4669              MOV      r1,sp
000028  4620              MOV      r0,r4
00002a  f7fffffe          BL       GPIO_Init
;;;141     
;;;142      GPIO_PinAFConfig(GPIOD, GPIO_PinSource0, GPIO_AF_MCO);
00002e  2200              MOVS     r2,#0
000030  4611              MOV      r1,r2
000032  4620              MOV      r0,r4
000034  f7fffffe          BL       GPIO_PinAFConfig
;;;143      GPIO_PinAFConfig(GPIOD, GPIO_PinSource1, GPIO_AF_MCO);
000038  2200              MOVS     r2,#0
00003a  2101              MOVS     r1,#1
00003c  4620              MOV      r0,r4
00003e  f7fffffe          BL       GPIO_PinAFConfig
;;;144      GPIO_PinAFConfig(GPIOD, GPIO_PinSource8, GPIO_AF_MCO);
000042  2200              MOVS     r2,#0
000044  2108              MOVS     r1,#8
000046  4620              MOV      r0,r4
000048  f7fffffe          BL       GPIO_PinAFConfig
;;;145      GPIO_PinAFConfig(GPIOD, GPIO_PinSource9, GPIO_AF_MCO);
00004c  2200              MOVS     r2,#0
00004e  2109              MOVS     r1,#9
000050  4620              MOV      r0,r4
000052  f7fffffe          BL       GPIO_PinAFConfig
;;;146      GPIO_PinAFConfig(GPIOD, GPIO_PinSource10, GPIO_AF_MCO);
000056  2200              MOVS     r2,#0
000058  210a              MOVS     r1,#0xa
00005a  4620              MOV      r0,r4
00005c  f7fffffe          BL       GPIO_PinAFConfig
;;;147      GPIO_PinAFConfig(GPIOD, GPIO_PinSource14, GPIO_AF_MCO);
000060  2200              MOVS     r2,#0
000062  210e              MOVS     r1,#0xe
000064  4620              MOV      r0,r4
000066  f7fffffe          BL       GPIO_PinAFConfig
;;;148      GPIO_PinAFConfig(GPIOD, GPIO_PinSource15, GPIO_AF_MCO);
00006a  2200              MOVS     r2,#0
00006c  210f              MOVS     r1,#0xf
00006e  4620              MOV      r0,r4
000070  f7fffffe          BL       GPIO_PinAFConfig
;;;149    
;;;150    
;;;151      GPIO_InitStructure.GPIO_Pin = GPIO_Pin_7 | GPIO_Pin_8 | GPIO_Pin_9 | GPIO_Pin_10 |
000074  f64f7080          MOV      r0,#0xff80
;;;152                                    GPIO_Pin_11 | GPIO_Pin_12 | GPIO_Pin_13 | GPIO_Pin_14 | 
;;;153                                    GPIO_Pin_15;
;;;154    
;;;155      GPIO_Init(GPIOE, &GPIO_InitStructure);
000078  4d6a              LDR      r5,|L6.548|
00007a  9000              STR      r0,[sp,#0]
00007c  4669              MOV      r1,sp
00007e  4628              MOV      r0,r5
000080  f7fffffe          BL       GPIO_Init
;;;156    
;;;157      GPIO_PinAFConfig(GPIOE, GPIO_PinSource7 , GPIO_AF_MCO);
000084  2200              MOVS     r2,#0
000086  2107              MOVS     r1,#7
000088  4628              MOV      r0,r5
00008a  f7fffffe          BL       GPIO_PinAFConfig
;;;158      GPIO_PinAFConfig(GPIOE, GPIO_PinSource8 , GPIO_AF_MCO);
00008e  2200              MOVS     r2,#0
000090  2108              MOVS     r1,#8
000092  4628              MOV      r0,r5
000094  f7fffffe          BL       GPIO_PinAFConfig
;;;159      GPIO_PinAFConfig(GPIOE, GPIO_PinSource9 , GPIO_AF_MCO);
000098  2200              MOVS     r2,#0
00009a  2109              MOVS     r1,#9
00009c  4628              MOV      r0,r5
00009e  f7fffffe          BL       GPIO_PinAFConfig
;;;160      GPIO_PinAFConfig(GPIOE, GPIO_PinSource10 , GPIO_AF_MCO);
0000a2  2200              MOVS     r2,#0
0000a4  210a              MOVS     r1,#0xa
0000a6  4628              MOV      r0,r5
0000a8  f7fffffe          BL       GPIO_PinAFConfig
;;;161      GPIO_PinAFConfig(GPIOE, GPIO_PinSource11 , GPIO_AF_MCO);
0000ac  2200              MOVS     r2,#0
0000ae  210b              MOVS     r1,#0xb
0000b0  4628              MOV      r0,r5
0000b2  f7fffffe          BL       GPIO_PinAFConfig
;;;162      GPIO_PinAFConfig(GPIOE, GPIO_PinSource12 , GPIO_AF_MCO);
0000b6  2200              MOVS     r2,#0
0000b8  210c              MOVS     r1,#0xc
0000ba  4628              MOV      r0,r5
0000bc  f7fffffe          BL       GPIO_PinAFConfig
;;;163      GPIO_PinAFConfig(GPIOE, GPIO_PinSource13 , GPIO_AF_MCO);
0000c0  2200              MOVS     r2,#0
0000c2  210d              MOVS     r1,#0xd
0000c4  4628              MOV      r0,r5
0000c6  f7fffffe          BL       GPIO_PinAFConfig
;;;164      GPIO_PinAFConfig(GPIOE, GPIO_PinSource14 , GPIO_AF_MCO);
0000ca  2200              MOVS     r2,#0
0000cc  210e              MOVS     r1,#0xe
0000ce  4628              MOV      r0,r5
0000d0  f7fffffe          BL       GPIO_PinAFConfig
;;;165      GPIO_PinAFConfig(GPIOE, GPIO_PinSource15 , GPIO_AF_MCO);
0000d4  2200              MOVS     r2,#0
0000d6  210f              MOVS     r1,#0xf
0000d8  4628              MOV      r0,r5
0000da  f7fffffe          BL       GPIO_PinAFConfig
;;;166    
;;;167      /* SRAM Address lines configuration */
;;;168      GPIO_InitStructure.GPIO_Pin = GPIO_Pin_0 | GPIO_Pin_1 | GPIO_Pin_2 | GPIO_Pin_3 | 
0000de  f24f003f          MOV      r0,#0xf03f
;;;169                                    GPIO_Pin_4 | GPIO_Pin_5 | GPIO_Pin_12 | GPIO_Pin_13 | 
;;;170                                    GPIO_Pin_14 | GPIO_Pin_15;
;;;171      GPIO_Init(GPIOF, &GPIO_InitStructure);
0000e2  4e51              LDR      r6,|L6.552|
0000e4  9000              STR      r0,[sp,#0]
0000e6  4669              MOV      r1,sp
0000e8  4630              MOV      r0,r6
0000ea  f7fffffe          BL       GPIO_Init
;;;172      GPIO_PinAFConfig(GPIOF,GPIO_PinSource0, GPIO_AF_MCO);
0000ee  2200              MOVS     r2,#0
0000f0  4611              MOV      r1,r2
0000f2  4630              MOV      r0,r6
0000f4  f7fffffe          BL       GPIO_PinAFConfig
;;;173      GPIO_PinAFConfig(GPIOF,GPIO_PinSource1, GPIO_AF_MCO);
0000f8  2200              MOVS     r2,#0
0000fa  2101              MOVS     r1,#1
0000fc  4630              MOV      r0,r6
0000fe  f7fffffe          BL       GPIO_PinAFConfig
;;;174      GPIO_PinAFConfig(GPIOF,GPIO_PinSource2, GPIO_AF_MCO);
000102  2200              MOVS     r2,#0
000104  2102              MOVS     r1,#2
000106  4630              MOV      r0,r6
000108  f7fffffe          BL       GPIO_PinAFConfig
;;;175      GPIO_PinAFConfig(GPIOF,GPIO_PinSource3, GPIO_AF_MCO);
00010c  2200              MOVS     r2,#0
00010e  2103              MOVS     r1,#3
000110  4630              MOV      r0,r6
000112  f7fffffe          BL       GPIO_PinAFConfig
;;;176      GPIO_PinAFConfig(GPIOF,GPIO_PinSource4, GPIO_AF_MCO);
000116  2200              MOVS     r2,#0
000118  2104              MOVS     r1,#4
00011a  4630              MOV      r0,r6
00011c  f7fffffe          BL       GPIO_PinAFConfig
;;;177      GPIO_PinAFConfig(GPIOF,GPIO_PinSource5, GPIO_AF_MCO);
000120  2200              MOVS     r2,#0
000122  2105              MOVS     r1,#5
000124  4630              MOV      r0,r6
000126  f7fffffe          BL       GPIO_PinAFConfig
;;;178      GPIO_PinAFConfig(GPIOF,GPIO_PinSource12, GPIO_AF_MCO);
00012a  2200              MOVS     r2,#0
00012c  210c              MOVS     r1,#0xc
00012e  4630              MOV      r0,r6
000130  f7fffffe          BL       GPIO_PinAFConfig
;;;179      GPIO_PinAFConfig(GPIOF,GPIO_PinSource13, GPIO_AF_MCO);
000134  2200              MOVS     r2,#0
000136  210d              MOVS     r1,#0xd
000138  4630              MOV      r0,r6
00013a  f7fffffe          BL       GPIO_PinAFConfig
;;;180      GPIO_PinAFConfig(GPIOF,GPIO_PinSource14, GPIO_AF_MCO);
00013e  2200              MOVS     r2,#0
000140  210e              MOVS     r1,#0xe
000142  4630              MOV      r0,r6
000144  f7fffffe          BL       GPIO_PinAFConfig
;;;181      GPIO_PinAFConfig(GPIOF,GPIO_PinSource15, GPIO_AF_MCO);
000148  2200              MOVS     r2,#0
00014a  210f              MOVS     r1,#0xf
00014c  4630              MOV      r0,r6
00014e  f7fffffe          BL       GPIO_PinAFConfig
;;;182    
;;;183    
;;;184      GPIO_InitStructure.GPIO_Pin = GPIO_Pin_0 | GPIO_Pin_1 | GPIO_Pin_2 | GPIO_Pin_3 | 
000152  203f              MOVS     r0,#0x3f
;;;185                                    GPIO_Pin_4 | GPIO_Pin_5;
;;;186    
;;;187      GPIO_Init(GPIOG, &GPIO_InitStructure);
000154  4e35              LDR      r6,|L6.556|
000156  9000              STR      r0,[sp,#0]
000158  4669              MOV      r1,sp
00015a  4630              MOV      r0,r6
00015c  f7fffffe          BL       GPIO_Init
;;;188    
;;;189      GPIO_PinAFConfig(GPIOG,GPIO_PinSource0, GPIO_AF_MCO);
000160  2200              MOVS     r2,#0
000162  4611              MOV      r1,r2
000164  4630              MOV      r0,r6
000166  f7fffffe          BL       GPIO_PinAFConfig
;;;190      GPIO_PinAFConfig(GPIOG,GPIO_PinSource1, GPIO_AF_MCO);
00016a  2200              MOVS     r2,#0
00016c  2101              MOVS     r1,#1
00016e  4630              MOV      r0,r6
000170  f7fffffe          BL       GPIO_PinAFConfig
;;;191      GPIO_PinAFConfig(GPIOG,GPIO_PinSource2, GPIO_AF_MCO);
000174  2200              MOVS     r2,#0
000176  2102              MOVS     r1,#2
000178  4630              MOV      r0,r6
00017a  f7fffffe          BL       GPIO_PinAFConfig
;;;192      GPIO_PinAFConfig(GPIOG,GPIO_PinSource3, GPIO_AF_MCO);
00017e  2200              MOVS     r2,#0
000180  2103              MOVS     r1,#3
000182  4630              MOV      r0,r6
000184  f7fffffe          BL       GPIO_PinAFConfig
;;;193      GPIO_PinAFConfig(GPIOG,GPIO_PinSource4, GPIO_AF_MCO);
000188  2200              MOVS     r2,#0
00018a  2104              MOVS     r1,#4
00018c  4630              MOV      r0,r6
00018e  f7fffffe          BL       GPIO_PinAFConfig
;;;194      GPIO_PinAFConfig(GPIOG,GPIO_PinSource5, GPIO_AF_MCO);
000192  2200              MOVS     r2,#0
000194  2105              MOVS     r1,#5
000196  4630              MOV      r0,r6
000198  f7fffffe          BL       GPIO_PinAFConfig
;;;195    
;;;196      GPIO_InitStructure.GPIO_Pin = GPIO_Pin_11 | GPIO_Pin_12 | GPIO_Pin_13; 
00019c  f44f5060          MOV      r0,#0x3800
;;;197    
;;;198      GPIO_Init(GPIOD, &GPIO_InitStructure);
0001a0  9000              STR      r0,[sp,#0]
0001a2  4669              MOV      r1,sp
0001a4  4620              MOV      r0,r4
0001a6  f7fffffe          BL       GPIO_Init
;;;199    
;;;200      GPIO_PinAFConfig(GPIOD,GPIO_PinSource11, GPIO_AF_MCO);
0001aa  2200              MOVS     r2,#0
0001ac  210b              MOVS     r1,#0xb
0001ae  4620              MOV      r0,r4
0001b0  f7fffffe          BL       GPIO_PinAFConfig
;;;201      GPIO_PinAFConfig(GPIOD,GPIO_PinSource12, GPIO_AF_MCO);
0001b4  2200              MOVS     r2,#0
0001b6  210c              MOVS     r1,#0xc
0001b8  4620              MOV      r0,r4
0001ba  f7fffffe          BL       GPIO_PinAFConfig
;;;202      GPIO_PinAFConfig(GPIOD,GPIO_PinSource13, GPIO_AF_MCO);
0001be  2200              MOVS     r2,#0
0001c0  210d              MOVS     r1,#0xd
0001c2  4620              MOV      r0,r4
0001c4  f7fffffe          BL       GPIO_PinAFConfig
;;;203    
;;;204      /* NOE and NWE configuration */  
;;;205      GPIO_InitStructure.GPIO_Pin = GPIO_Pin_4 |GPIO_Pin_5;
0001c8  2030              MOVS     r0,#0x30
;;;206    
;;;207      GPIO_Init(GPIOD, &GPIO_InitStructure);
0001ca  9000              STR      r0,[sp,#0]
0001cc  4669              MOV      r1,sp
0001ce  4620              MOV      r0,r4
0001d0  f7fffffe          BL       GPIO_Init
;;;208      GPIO_PinAFConfig(GPIOD,GPIO_PinSource4, GPIO_AF_MCO);
0001d4  2200              MOVS     r2,#0
0001d6  2104              MOVS     r1,#4
0001d8  4620              MOV      r0,r4
0001da  f7fffffe          BL       GPIO_PinAFConfig
;;;209      GPIO_PinAFConfig(GPIOD,GPIO_PinSource5, GPIO_AF_MCO);
0001de  2200              MOVS     r2,#0
0001e0  2105              MOVS     r1,#5
0001e2  4620              MOV      r0,r4
0001e4  f7fffffe          BL       GPIO_PinAFConfig
;;;210    
;;;211      /* NE4 configuration */
;;;212      GPIO_InitStructure.GPIO_Pin = GPIO_Pin_12; 
0001e8  14a0              ASRS     r0,r4,#18
;;;213    
;;;214      GPIO_Init(GPIOG, &GPIO_InitStructure);
0001ea  9000              STR      r0,[sp,#0]
0001ec  4669              MOV      r1,sp
0001ee  4630              MOV      r0,r6
0001f0  f7fffffe          BL       GPIO_Init
;;;215      GPIO_PinAFConfig(GPIOG, GPIO_PinSource12, GPIO_AF_MCO);
0001f4  2200              MOVS     r2,#0
0001f6  210c              MOVS     r1,#0xc
0001f8  4630              MOV      r0,r6
0001fa  f7fffffe          BL       GPIO_PinAFConfig
;;;216    
;;;217      /* NBL0, NBL1 configuration */
;;;218      GPIO_InitStructure.GPIO_Pin = GPIO_Pin_0 | GPIO_Pin_1; 
0001fe  2003              MOVS     r0,#3
;;;219      GPIO_Init(GPIOE, &GPIO_InitStructure); 
000200  9000              STR      r0,[sp,#0]
000202  4669              MOV      r1,sp
000204  4628              MOV      r0,r5
000206  f7fffffe          BL       GPIO_Init
;;;220    
;;;221      GPIO_PinAFConfig(GPIOE,GPIO_PinSource0, GPIO_AF_MCO);
00020a  2200              MOVS     r2,#0
00020c  4611              MOV      r1,r2
00020e  4628              MOV      r0,r5
000210  f7fffffe          BL       GPIO_PinAFConfig
;;;222      GPIO_PinAFConfig(GPIOE,GPIO_PinSource1, GPIO_AF_MCO);
000214  2200              MOVS     r2,#0
000216  2101              MOVS     r1,#1
000218  4628              MOV      r0,r5
00021a  f7fffffe          BL       GPIO_PinAFConfig
;;;223    }
00021e  bd7c              POP      {r2-r6,pc}
;;;224    
                          ENDP

                  |L6.544|
                          DCD      0x40020c00
                  |L6.548|
                          DCD      0x40021000
                  |L6.552|
                          DCD      0x40021400
                  |L6.556|
                          DCD      0x40021800

                          AREA ||i.LCD_DisplayChar||, CODE, READONLY, ALIGN=2

                  LCD_DisplayChar PROC
;;;565      */
;;;566    void LCD_DisplayChar(uint16_t Line, uint16_t Column, uint8_t Ascii)
000000  4b06              LDR      r3,|L7.28|
;;;567    {
000002  b410              PUSH     {r4}
;;;568      Ascii -= 32;
;;;569      LCD_DrawChar(Line, Column, &LCD_Currentfonts->table[Ascii * LCD_Currentfonts->Height]);
000004  685b              LDR      r3,[r3,#4]  ; LCD_Currentfonts
000006  3a20              SUBS     r2,r2,#0x20           ;568
000008  b2d2              UXTB     r2,r2                 ;568
00000a  681c              LDR      r4,[r3,#0]
00000c  88db              LDRH     r3,[r3,#6]
00000e  4353              MULS     r3,r2,r3
000010  eb040243          ADD      r2,r4,r3,LSL #1
000014  bc10              POP      {r4}
000016  f7ffbffe          B.W      LCD_DrawChar
;;;570    }
;;;571    
                          ENDP

00001a  0000              DCW      0x0000
                  |L7.28|
                          DCD      ||.data||

                          AREA ||i.LCD_DisplayOff||, CODE, READONLY, ALIGN=1

                  LCD_DisplayOff PROC
;;;1273     */
;;;1274   void LCD_DisplayOff(void)
000000  2100              MOVS     r1,#0
;;;1275   {
;;;1276     /* Display Off */
;;;1277     LCD_WriteReg(LCD_REG_7, 0x0); 
000002  2007              MOVS     r0,#7
000004  f7ffbffe          B.W      LCD_WriteReg
;;;1278   }
;;;1279   
                          ENDP


                          AREA ||i.LCD_DisplayOn||, CODE, READONLY, ALIGN=1

                  LCD_DisplayOn PROC
;;;1262     */
;;;1263   void LCD_DisplayOn(void)
000000  f2401173          MOV      r1,#0x173
;;;1264   {
;;;1265     /* Display On */
;;;1266     LCD_WriteReg(LCD_REG_7, 0x0173); /* 262K color and display ON */
000004  2007              MOVS     r0,#7
000006  f7ffbffe          B.W      LCD_WriteReg
;;;1267   }
;;;1268   
                          ENDP


                          AREA ||i.LCD_DisplayStringLine||, CODE, READONLY, ALIGN=2

                  LCD_DisplayStringLine PROC
;;;579      */
;;;580    void LCD_DisplayStringLine(uint16_t Line, uint8_t *ptr)
000000  b5f0              PUSH     {r4-r7,lr}
;;;581    {
000002  4607              MOV      r7,r0
000004  460d              MOV      r5,r1
;;;582      uint16_t refcolumn = LCD_PIXEL_WIDTH - 1;
000006  f240143f          MOV      r4,#0x13f
;;;583    
;;;584      /* Send the string character by character on lCD */
;;;585      while ((*ptr != 0) & (((refcolumn + 1) & 0xFFFF) >= LCD_Currentfonts->Width))
;;;586      {
;;;587        /* Display one character on LCD */
;;;588        LCD_DisplayChar(Line, refcolumn, *ptr);
;;;589        /* Decrement the column position by 16 */
;;;590        refcolumn -= LCD_Currentfonts->Width;
00000a  4e0a              LDR      r6,|L10.52|
00000c  e008              B        |L10.32|
                  |L10.14|
00000e  4621              MOV      r1,r4                 ;588
000010  4638              MOV      r0,r7                 ;588
000012  f7fffffe          BL       LCD_DisplayChar
000016  6870              LDR      r0,[r6,#4]  ; LCD_Currentfonts
000018  8880              LDRH     r0,[r0,#4]
00001a  1a20              SUBS     r0,r4,r0
00001c  b284              UXTH     r4,r0
;;;591        /* Point on the next character */
;;;592        ptr++;
00001e  1c6d              ADDS     r5,r5,#1
                  |L10.32|
000020  782a              LDRB     r2,[r5,#0]            ;585
000022  2a00              CMP      r2,#0                 ;585
000024  d005              BEQ      |L10.50|
000026  6871              LDR      r1,[r6,#4]            ;585  ; LCD_Currentfonts
000028  1c60              ADDS     r0,r4,#1              ;585
00002a  b280              UXTH     r0,r0                 ;585
00002c  8889              LDRH     r1,[r1,#4]            ;585
00002e  4288              CMP      r0,r1                 ;585
000030  d2ed              BCS      |L10.14|
                  |L10.50|
;;;593      }
;;;594    }
000032  bdf0              POP      {r4-r7,pc}
;;;595    
                          ENDP

                  |L10.52|
                          DCD      ||.data||

                          AREA ||i.LCD_DrawChar||, CODE, READONLY, ALIGN=2

                  LCD_DrawChar PROC
;;;526      */
;;;527    void LCD_DrawChar(uint16_t Xpos, uint16_t Ypos, const uint16_t *c)
000000  e92d4ff0          PUSH     {r4-r11,lr}
;;;528    {
000004  468a              MOV      r10,r1
000006  4691              MOV      r9,r2
;;;529      uint32_t index = 0, i = 0;
000008  2600              MOVS     r6,#0
;;;530      uint16_t  Xaddress = 0;
;;;531      Xaddress = Xpos;
00000a  4605              MOV      r5,r0
;;;532      
;;;533      LCD_SetCursor(Xaddress, Ypos);
00000c  f7fffffe          BL       LCD_SetCursor
000010  f8dfb074          LDR      r11,|L11.136|
;;;534      
;;;535      for(index = 0; index < LCD_Currentfonts->Height; index++)
;;;536      {
;;;537        LCD_WriteRAM_Prepare(); /* Prepare to write GRAM */
;;;538        for(i = 0; i < LCD_Currentfonts->Width; i++)
;;;539        {
;;;540      
;;;541          if((((c[index] & ((0x80 << ((LCD_Currentfonts->Width / 12 ) * 8 ) ) >> i)) == 0x00) &&(LCD_Currentfonts->Width <= 12))||
;;;542            (((c[index] & (0x1 << i)) == 0x00)&&(LCD_Currentfonts->Width > 12 )))
000014  4c1d              LDR      r4,|L11.140|
000016  e031              B        |L11.124|
                  |L11.24|
000018  4a1d              LDR      r2,|L11.144|
00001a  2022              MOVS     r0,#0x22              ;535
00001c  8010              STRH     r0,[r2,#0]            ;535
00001e  2300              MOVS     r3,#0                 ;538
000020  e022              B        |L11.104|
000022  bf00              NOP                            ;541
                  |L11.36|
000024  f04f0c0c          MOV      r12,#0xc              ;541
000028  fbb0fcfc          UDIV     r12,r0,r12            ;541
00002c  ea4f08cc          LSL      r8,r12,#3             ;541
000030  f04f0c80          MOV      r12,#0x80             ;541
000034  fa0cfc08          LSL      r12,r12,r8            ;541
000038  f8398016          LDRH     r8,[r9,r6,LSL #1]     ;541
00003c  fa4cfc03          ASR      r12,r12,r3            ;541
000040  ea1c0f08          TST      r12,r8                ;541
000044  d101              BNE      |L11.74|
000046  280c              CMP      r0,#0xc               ;541
000048  d908              BLS      |L11.92|
                  |L11.74|
00004a  f04f0c01          MOV      r12,#1
00004e  fa0cfc03          LSL      r12,r12,r3
000052  ea180f0c          TST      r8,r12
000056  d103              BNE      |L11.96|
000058  280c              CMP      r0,#0xc
00005a  d901              BLS      |L11.96|
                  |L11.92|
;;;543    
;;;544          {
;;;545            LCD_WriteRAM(BackColor);
00005c  8860              LDRH     r0,[r4,#2]  ; BackColor
00005e  e000              B        |L11.98|
                  |L11.96|
;;;546          }
;;;547          else
;;;548          {
;;;549            LCD_WriteRAM(TextColor);
000060  8820              LDRH     r0,[r4,#0]  ; TextColor
                  |L11.98|
000062  f8ab0000          STRH     r0,[r11,#0]
000066  1c5b              ADDS     r3,r3,#1              ;538
                  |L11.104|
000068  88b8              LDRH     r0,[r7,#4]            ;538
00006a  4298              CMP      r0,r3                 ;538
00006c  d8da              BHI      |L11.36|
;;;550          } 
;;;551        }
;;;552        Xaddress++;
00006e  1c6d              ADDS     r5,r5,#1
000070  b2ad              UXTH     r5,r5
;;;553        LCD_SetCursor(Xaddress, Ypos);
000072  4651              MOV      r1,r10
000074  4628              MOV      r0,r5
000076  f7fffffe          BL       LCD_SetCursor
00007a  1c76              ADDS     r6,r6,#1              ;535
                  |L11.124|
00007c  6867              LDR      r7,[r4,#4]            ;535  ; LCD_Currentfonts
00007e  88f8              LDRH     r0,[r7,#6]            ;535
000080  42b0              CMP      r0,r6                 ;535
000082  d8c9              BHI      |L11.24|
;;;554      }
;;;555    }
000084  e8bd8ff0          POP      {r4-r11,pc}
;;;556    
                          ENDP

                  |L11.136|
                          DCD      0x60100000
                  |L11.140|
                          DCD      ||.data||
                  |L11.144|
                          DCD      0x60080000

                          AREA ||i.LCD_DrawCircle||, CODE, READONLY, ALIGN=2

                  LCD_DrawCircle PROC
;;;699      */
;;;700    void LCD_DrawCircle(uint16_t Xpos, uint16_t Ypos, uint16_t Radius)
000000  e92d4ffc          PUSH     {r2-r11,lr}
;;;701    {
000004  4681              MOV      r9,r0
;;;702      int32_t  D;/* Decision Variable */ 
;;;703      uint32_t  CurX;/* Current X Value */
;;;704      uint32_t  CurY;/* Current Y Value */ 
;;;705      
;;;706      D = 3 - (Radius << 1);
000006  2003              MOVS     r0,#3
000008  468a              MOV      r10,r1                ;701
00000a  eba00842          SUB      r8,r0,r2,LSL #1
;;;707      CurX = 0;
00000e  2500              MOVS     r5,#0
;;;708      CurY = Radius;
000010  4614              MOV      r4,r2
;;;709      
;;;710      while (CurX <= CurY)
000012  e078              B        |L12.262|
                  |L12.20|
;;;711      {
;;;712        LCD_SetCursor(Xpos + CurX, Ypos + CurY);
000014  eb0a0004          ADD      r0,r10,r4
000018  b281              UXTH     r1,r0
00001a  eb090b05          ADD      r11,r9,r5
00001e  9000              STR      r0,[sp,#0]
000020  fa1ff08b          UXTH     r0,r11
000024  f7fffffe          BL       LCD_SetCursor
000028  4f39              LDR      r7,|L12.272|
00002a  2622              MOVS     r6,#0x22
00002c  803e              STRH     r6,[r7,#0]
;;;713        LCD_WriteRAM_Prepare(); /* Prepare to write GRAM */
;;;714        LCD_WriteRAM(TextColor);
00002e  4839              LDR      r0,|L12.276|
000030  8800              LDRH     r0,[r0,#0]  ; TextColor
000032  4a39              LDR      r2,|L12.280|
000034  8010              STRH     r0,[r2,#0]
;;;715        LCD_SetCursor(Xpos + CurX, Ypos - CurY);
000036  ebaa0004          SUB      r0,r10,r4
00003a  b281              UXTH     r1,r0
00003c  9001              STR      r0,[sp,#4]
00003e  fa1ff08b          UXTH     r0,r11
000042  f7fffffe          BL       LCD_SetCursor
000046  803e              STRH     r6,[r7,#0]
;;;716        LCD_WriteRAM_Prepare(); /* Prepare to write GRAM */
;;;717        LCD_WriteRAM(TextColor);
000048  4932              LDR      r1,|L12.276|
00004a  8808              LDRH     r0,[r1,#0]  ; TextColor
00004c  4a32              LDR      r2,|L12.280|
00004e  8010              STRH     r0,[r2,#0]
;;;718        LCD_SetCursor(Xpos - CurX, Ypos + CurY);
000050  9800              LDR      r0,[sp,#0]
000052  eba90b05          SUB      r11,r9,r5
000056  b281              UXTH     r1,r0
000058  fa1ff08b          UXTH     r0,r11
00005c  f7fffffe          BL       LCD_SetCursor
000060  803e              STRH     r6,[r7,#0]
;;;719        LCD_WriteRAM_Prepare(); /* Prepare to write GRAM */
;;;720        LCD_WriteRAM(TextColor);
000062  492c              LDR      r1,|L12.276|
000064  8808              LDRH     r0,[r1,#0]  ; TextColor
000066  4a2c              LDR      r2,|L12.280|
000068  8010              STRH     r0,[r2,#0]
;;;721        LCD_SetCursor(Xpos - CurX, Ypos - CurY);
00006a  9801              LDR      r0,[sp,#4]
00006c  b281              UXTH     r1,r0
00006e  fa1ff08b          UXTH     r0,r11
000072  f7fffffe          BL       LCD_SetCursor
000076  803e              STRH     r6,[r7,#0]
;;;722        LCD_WriteRAM_Prepare(); /* Prepare to write GRAM */
;;;723        LCD_WriteRAM(TextColor);
000078  4826              LDR      r0,|L12.276|
00007a  8800              LDRH     r0,[r0,#0]  ; TextColor
00007c  4a26              LDR      r2,|L12.280|
00007e  8010              STRH     r0,[r2,#0]
;;;724        LCD_SetCursor(Xpos + CurY, Ypos + CurX);
000080  eb0a0005          ADD      r0,r10,r5
000084  b281              UXTH     r1,r0
000086  eb090b04          ADD      r11,r9,r4
00008a  9000              STR      r0,[sp,#0]
00008c  fa1ff08b          UXTH     r0,r11
000090  f7fffffe          BL       LCD_SetCursor
000094  803e              STRH     r6,[r7,#0]
;;;725        LCD_WriteRAM_Prepare(); /* Prepare to write GRAM */
;;;726        LCD_WriteRAM(TextColor);
000096  481f              LDR      r0,|L12.276|
000098  8800              LDRH     r0,[r0,#0]  ; TextColor
00009a  4a1f              LDR      r2,|L12.280|
00009c  8010              STRH     r0,[r2,#0]
;;;727        LCD_SetCursor(Xpos + CurY, Ypos - CurX);
00009e  ebaa0005          SUB      r0,r10,r5
0000a2  b281              UXTH     r1,r0
0000a4  9001              STR      r0,[sp,#4]
0000a6  fa1ff08b          UXTH     r0,r11
0000aa  f7fffffe          BL       LCD_SetCursor
0000ae  803e              STRH     r6,[r7,#0]
;;;728        LCD_WriteRAM_Prepare(); /* Prepare to write GRAM */
;;;729        LCD_WriteRAM(TextColor);
0000b0  4918              LDR      r1,|L12.276|
0000b2  8808              LDRH     r0,[r1,#0]  ; TextColor
0000b4  4a18              LDR      r2,|L12.280|
0000b6  8010              STRH     r0,[r2,#0]
;;;730        LCD_SetCursor(Xpos - CurY, Ypos + CurX);
0000b8  9800              LDR      r0,[sp,#0]
0000ba  eba90b04          SUB      r11,r9,r4
0000be  b281              UXTH     r1,r0
0000c0  fa1ff08b          UXTH     r0,r11
0000c4  f7fffffe          BL       LCD_SetCursor
0000c8  803e              STRH     r6,[r7,#0]
;;;731        LCD_WriteRAM_Prepare(); /* Prepare to write GRAM */
;;;732        LCD_WriteRAM(TextColor);
0000ca  4912              LDR      r1,|L12.276|
0000cc  8808              LDRH     r0,[r1,#0]  ; TextColor
0000ce  4a12              LDR      r2,|L12.280|
0000d0  8010              STRH     r0,[r2,#0]
;;;733        LCD_SetCursor(Xpos - CurY, Ypos - CurX);
0000d2  9801              LDR      r0,[sp,#4]
0000d4  b281              UXTH     r1,r0
0000d6  fa1ff08b          UXTH     r0,r11
0000da  f7fffffe          BL       LCD_SetCursor
0000de  803e              STRH     r6,[r7,#0]
;;;734        LCD_WriteRAM_Prepare(); /* Prepare to write GRAM */
;;;735        LCD_WriteRAM(TextColor);
0000e0  480c              LDR      r0,|L12.276|
0000e2  8800              LDRH     r0,[r0,#0]  ; TextColor
0000e4  490c              LDR      r1,|L12.280|
0000e6  8008              STRH     r0,[r1,#0]
;;;736        if (D < 0)
0000e8  f1b80f00          CMP      r8,#0
0000ec  da04              BGE      |L12.248|
;;;737        { 
;;;738          D += (CurX << 2) + 6;
0000ee  eb080885          ADD      r8,r8,r5,LSL #2
0000f2  f1080806          ADD      r8,r8,#6
0000f6  e005              B        |L12.260|
                  |L12.248|
;;;739        }
;;;740        else
;;;741        {
;;;742          D += ((CurX - CurY) << 2) + 10;
0000f8  1b28              SUBS     r0,r5,r4
0000fa  eb080880          ADD      r8,r8,r0,LSL #2
0000fe  f108080a          ADD      r8,r8,#0xa
;;;743          CurY--;
000102  1e64              SUBS     r4,r4,#1
                  |L12.260|
;;;744        }
;;;745        CurX++;
000104  1c6d              ADDS     r5,r5,#1
                  |L12.262|
000106  42a5              CMP      r5,r4                 ;710
000108  d984              BLS      |L12.20|
;;;746      }
;;;747    }
00010a  e8bd8ffc          POP      {r2-r11,pc}
;;;748    
                          ENDP

00010e  0000              DCW      0x0000
                  |L12.272|
                          DCD      0x60080000
                  |L12.276|
                          DCD      ||.data||
                  |L12.280|
                          DCD      0x60100000

                          AREA ||i.LCD_DrawFullCircle||, CODE, READONLY, ALIGN=2

                  LCD_DrawFullCircle PROC
;;;848      */
;;;849    void LCD_DrawFullCircle(uint16_t Xpos, uint16_t Ypos, uint16_t Radius)
000000  e92d4ff0          PUSH     {r4-r11,lr}
;;;850    {
000004  4607              MOV      r7,r0
000006  4690              MOV      r8,r2
;;;851      int32_t  D;    /* Decision Variable */ 
;;;852      uint32_t  CurX;/* Current X Value */
;;;853      uint32_t  CurY;/* Current Y Value */ 
;;;854      
;;;855      D = 3 - (Radius << 1);
000008  2003              MOVS     r0,#3
00000a  eba00648          SUB      r6,r0,r8,LSL #1
;;;856    
;;;857      CurX = 0;
;;;858      CurY = Radius;
;;;859      
;;;860      LCD_SetTextColor(BackColor);
00000e  4826              LDR      r0,|L13.168|
000010  4689              MOV      r9,r1                 ;850
000012  2500              MOVS     r5,#0                 ;857
000014  8841              LDRH     r1,[r0,#2]  ; BackColor
000016  4614              MOV      r4,r2                 ;858
000018  8001              STRH     r1,[r0,#0]            ;858
;;;861    
;;;862      while (CurX <= CurY)
00001a  e039              B        |L13.144|
                  |L13.28|
;;;863      {
;;;864        if(CurY > 0) 
00001c  b1ac              CBZ      r4,|L13.74|
;;;865        {
;;;866          LCD_DrawLine(Xpos - CurX, Ypos + CurY, 2*CurY, LCD_DIR_HORIZONTAL);
00001e  ea4f0b44          LSL      r11,r4,#1
000022  eb090a04          ADD      r10,r9,r4
000026  1b78              SUBS     r0,r7,r5
000028  fa1ff28b          UXTH     r2,r11
00002c  fa1ff18a          UXTH     r1,r10
000030  b280              UXTH     r0,r0
000032  2300              MOVS     r3,#0
000034  f7fffffe          BL       LCD_DrawLine
;;;867          LCD_DrawLine(Xpos + CurX, Ypos + CurY, 2*CurY, LCD_DIR_HORIZONTAL);
000038  1978              ADDS     r0,r7,r5
00003a  fa1ff28b          UXTH     r2,r11
00003e  fa1ff18a          UXTH     r1,r10
000042  b280              UXTH     r0,r0
000044  2300              MOVS     r3,#0
000046  f7fffffe          BL       LCD_DrawLine
                  |L13.74|
;;;868        }
;;;869    
;;;870        if(CurX > 0) 
00004a  b1ad              CBZ      r5,|L13.120|
;;;871        {
;;;872          LCD_DrawLine(Xpos - CurY, Ypos + CurX, 2*CurX, LCD_DIR_HORIZONTAL);
00004c  ea4f0b45          LSL      r11,r5,#1
000050  eb090a05          ADD      r10,r9,r5
000054  1b38              SUBS     r0,r7,r4
000056  fa1ff28b          UXTH     r2,r11
00005a  fa1ff18a          UXTH     r1,r10
00005e  b280              UXTH     r0,r0
000060  2300              MOVS     r3,#0
000062  f7fffffe          BL       LCD_DrawLine
;;;873          LCD_DrawLine(Xpos + CurY, Ypos + CurX, 2*CurX, LCD_DIR_HORIZONTAL);
000066  1938              ADDS     r0,r7,r4
000068  fa1ff28b          UXTH     r2,r11
00006c  fa1ff18a          UXTH     r1,r10
000070  b280              UXTH     r0,r0
000072  2300              MOVS     r3,#0
000074  f7fffffe          BL       LCD_DrawLine
                  |L13.120|
;;;874        }
;;;875        if (D < 0)
000078  2e00              CMP      r6,#0
00007a  da03              BGE      |L13.132|
;;;876        { 
;;;877          D += (CurX << 2) + 6;
00007c  eb060685          ADD      r6,r6,r5,LSL #2
000080  1db6              ADDS     r6,r6,#6
000082  e004              B        |L13.142|
                  |L13.132|
;;;878        }
;;;879        else
;;;880        {
;;;881          D += ((CurX - CurY) << 2) + 10;
000084  1b28              SUBS     r0,r5,r4
000086  eb060680          ADD      r6,r6,r0,LSL #2
00008a  360a              ADDS     r6,r6,#0xa
;;;882          CurY--;
00008c  1e64              SUBS     r4,r4,#1
                  |L13.142|
;;;883        }
;;;884        CurX++;
00008e  1c6d              ADDS     r5,r5,#1
                  |L13.144|
000090  42a5              CMP      r5,r4                 ;862
000092  d9c3              BLS      |L13.28|
;;;885      }
;;;886    
;;;887      LCD_SetTextColor(TextColor);
000094  4804              LDR      r0,|L13.168|
000096  8801              LDRH     r1,[r0,#0]  ; TextColor
000098  8001              STRH     r1,[r0,#0]
;;;888      LCD_DrawCircle(Xpos, Ypos, Radius);
00009a  4642              MOV      r2,r8
00009c  4649              MOV      r1,r9
00009e  4638              MOV      r0,r7
0000a0  e8bd4ff0          POP      {r4-r11,lr}
0000a4  f7ffbffe          B.W      LCD_DrawCircle
;;;889    }
;;;890    
                          ENDP

                  |L13.168|
                          DCD      ||.data||

                          AREA ||i.LCD_DrawFullRect||, CODE, READONLY, ALIGN=2

                  LCD_DrawFullRect PROC
;;;817      */
;;;818    void LCD_DrawFullRect(uint16_t Xpos, uint16_t Ypos, uint16_t Width, uint16_t Height)
000000  e92d41f0          PUSH     {r4-r8,lr}
;;;819    {
;;;820      LCD_SetTextColor(TextColor);
000004  4c1e              LDR      r4,|L14.128|
000006  4605              MOV      r5,r0                 ;819
000008  461e              MOV      r6,r3                 ;819
00000a  8820              LDRH     r0,[r4,#0]  ; TextColor
00000c  460f              MOV      r7,r1                 ;819
00000e  4690              MOV      r8,r2                 ;819
000010  8020              STRH     r0,[r4,#0]            ;819
;;;821    
;;;822      LCD_DrawLine(Xpos, Ypos, Width, LCD_DIR_HORIZONTAL);
000012  2300              MOVS     r3,#0
000014  4628              MOV      r0,r5
000016  f7fffffe          BL       LCD_DrawLine
;;;823      LCD_DrawLine((Xpos + Height), Ypos, Width, LCD_DIR_HORIZONTAL);
00001a  19a8              ADDS     r0,r5,r6
00001c  b280              UXTH     r0,r0
00001e  2300              MOVS     r3,#0
000020  4642              MOV      r2,r8
000022  4639              MOV      r1,r7
000024  f7fffffe          BL       LCD_DrawLine
;;;824      
;;;825      LCD_DrawLine(Xpos, Ypos, Height, LCD_DIR_VERTICAL);
000028  2301              MOVS     r3,#1
00002a  4632              MOV      r2,r6
00002c  4639              MOV      r1,r7
00002e  4628              MOV      r0,r5
000030  f7fffffe          BL       LCD_DrawLine
;;;826      LCD_DrawLine(Xpos, (Ypos - Width + 1), Height, LCD_DIR_VERTICAL);
000034  eba70008          SUB      r0,r7,r8
000038  1c40              ADDS     r0,r0,#1
00003a  b281              UXTH     r1,r0
00003c  2301              MOVS     r3,#1
00003e  4632              MOV      r2,r6
000040  4628              MOV      r0,r5
000042  f7fffffe          BL       LCD_DrawLine
;;;827    
;;;828      Width -= 2;
;;;829      Height--;
000046  1e76              SUBS     r6,r6,#1
000048  f1a80802          SUB      r8,r8,#2              ;828
;;;830      Ypos--;
00004c  1e7f              SUBS     r7,r7,#1
;;;831    
;;;832      LCD_SetTextColor(BackColor);
00004e  8860              LDRH     r0,[r4,#2]  ; BackColor
000050  fa1ff888          UXTH     r8,r8                 ;828
000054  b2b6              UXTH     r6,r6                 ;829
000056  b2bf              UXTH     r7,r7                 ;830
000058  8020              STRH     r0,[r4,#0]            ;830
;;;833    
;;;834      while(Height--)
00005a  e007              B        |L14.108|
                  |L14.92|
;;;835      {
;;;836        LCD_DrawLine(++Xpos, Ypos, Width, LCD_DIR_HORIZONTAL);    
00005c  1c6d              ADDS     r5,r5,#1
00005e  b2a8              UXTH     r0,r5
000060  4605              MOV      r5,r0
000062  2300              MOVS     r3,#0
000064  4642              MOV      r2,r8
000066  4639              MOV      r1,r7
000068  f7fffffe          BL       LCD_DrawLine
                  |L14.108|
00006c  0030              MOVS     r0,r6                 ;834
00006e  f1a60601          SUB      r6,r6,#1              ;834
000072  b2b6              UXTH     r6,r6                 ;834
000074  d1f2              BNE      |L14.92|
;;;837      }
;;;838    
;;;839      LCD_SetTextColor(TextColor);
000076  8820              LDRH     r0,[r4,#0]  ; TextColor
000078  8020              STRH     r0,[r4,#0]
;;;840    }
00007a  e8bd81f0          POP      {r4-r8,pc}
;;;841    
                          ENDP

00007e  0000              DCW      0x0000
                  |L14.128|
                          DCD      ||.data||

                          AREA ||i.LCD_DrawLine||, CODE, READONLY, ALIGN=2

                  LCD_DrawLine PROC
;;;650      */
;;;651    void LCD_DrawLine(uint16_t Xpos, uint16_t Ypos, uint16_t Length, uint8_t Direction)
000000  e92d4ff0          PUSH     {r4-r11,lr}
;;;652    {
000004  4617              MOV      r7,r2
000006  4698              MOV      r8,r3
000008  4605              MOV      r5,r0
00000a  4689              MOV      r9,r1
;;;653      uint32_t i = 0;
00000c  2400              MOVS     r4,#0
;;;654      
;;;655      LCD_SetCursor(Xpos, Ypos);
00000e  f7fffffe          BL       LCD_SetCursor
000012  2222              MOVS     r2,#0x22
000014  f8dfc048          LDR      r12,|L15.96|
;;;656      if(Direction == LCD_DIR_HORIZONTAL)
;;;657      {
;;;658        LCD_WriteRAM_Prepare(); /* Prepare to write GRAM */
;;;659        for(i = 0; i < Length; i++)
;;;660        {
;;;661          LCD_WriteRAM(TextColor);
000018  4812              LDR      r0,|L15.100|
00001a  4e13              LDR      r6,|L15.104|
00001c  f1b80f00          CMP      r8,#0                 ;656
000020  d003              BEQ      |L15.42|
000022  4693              MOV      r11,r2                ;656
000024  46e2              MOV      r10,r12               ;656
000026  4680              MOV      r8,r0
;;;662        }
;;;663      }
;;;664      else
;;;665      {
;;;666        for(i = 0; i < Length; i++)
000028  e016              B        |L15.88|
                  |L15.42|
00002a  f8ac2000          STRH     r2,[r12,#0]
00002e  e002              B        |L15.54|
                  |L15.48|
000030  8801              LDRH     r1,[r0,#0]            ;661  ; TextColor
000032  8031              STRH     r1,[r6,#0]            ;661
000034  1c64              ADDS     r4,r4,#1              ;659
                  |L15.54|
000036  42bc              CMP      r4,r7                 ;659
000038  d3fa              BCC      |L15.48|
                  |L15.58|
;;;667        {
;;;668          LCD_WriteRAM_Prepare(); /* Prepare to write GRAM */
;;;669          LCD_WriteRAM(TextColor);
;;;670          Xpos++;
;;;671          LCD_SetCursor(Xpos, Ypos);
;;;672        }
;;;673      }
;;;674    }
00003a  e8bd8ff0          POP      {r4-r11,pc}
00003e  bf00              NOP      
                  |L15.64|
000040  f8aab000          STRH     r11,[r10,#0]
000044  f8b80000          LDRH     r0,[r8,#0]            ;669  ; TextColor
000048  8030              STRH     r0,[r6,#0]            ;669
00004a  1c6d              ADDS     r5,r5,#1              ;670
00004c  b2ad              UXTH     r5,r5                 ;670
00004e  4649              MOV      r1,r9                 ;671
000050  4628              MOV      r0,r5                 ;671
000052  f7fffffe          BL       LCD_SetCursor
000056  1c64              ADDS     r4,r4,#1              ;666
                  |L15.88|
000058  42bc              CMP      r4,r7                 ;666
00005a  d3f1              BCC      |L15.64|
00005c  e7ed              B        |L15.58|
;;;675    
                          ENDP

00005e  0000              DCW      0x0000
                  |L15.96|
                          DCD      0x60080000
                  |L15.100|
                          DCD      ||.data||
                  |L15.104|
                          DCD      0x60100000

                          AREA ||i.LCD_DrawMonoPict||, CODE, READONLY, ALIGN=2

                  LCD_DrawMonoPict PROC
;;;753      */
;;;754    void LCD_DrawMonoPict(const uint32_t *Pict)
000000  b5f0              PUSH     {r4-r7,lr}
;;;755    {
000002  4605              MOV      r5,r0
;;;756      uint32_t index = 0, i = 0;
000004  2400              MOVS     r4,#0
;;;757      LCD_SetCursor(0, (LCD_PIXEL_WIDTH - 1)); 
000006  f240113f          MOV      r1,#0x13f
00000a  4620              MOV      r0,r4
00000c  f7fffffe          BL       LCD_SetCursor
000010  490d              LDR      r1,|L16.72|
000012  2022              MOVS     r0,#0x22
000014  8008              STRH     r0,[r1,#0]
;;;758      LCD_WriteRAM_Prepare(); /* Prepare to write GRAM */
;;;759      for(index = 0; index < 2400; index++)
;;;760      {
;;;761        for(i = 0; i < 32; i++)
;;;762        {
;;;763          if((Pict[index] & (1 << i)) == 0x00)
;;;764          {
;;;765            LCD_WriteRAM(BackColor);
000016  4a0d              LDR      r2,|L16.76|
000018  480d              LDR      r0,|L16.80|
00001a  2301              MOVS     r3,#1                 ;763
00001c  f44f6c16          MOV      r12,#0x960            ;759
                  |L16.32|
000020  f05f0100          MOVS.W   r1,#0                 ;761
                  |L16.36|
000024  f8556024          LDR      r6,[r5,r4,LSL #2]     ;763
000028  fa03f701          LSL      r7,r3,r1              ;763
00002c  423e              TST      r6,r7                 ;763
00002e  d008              BEQ      |L16.66|
;;;766          }
;;;767          else
;;;768          {
;;;769            LCD_WriteRAM(TextColor);
000030  8816              LDRH     r6,[r2,#0]  ; TextColor
                  |L16.50|
000032  8006              STRH     r6,[r0,#0]
000034  1c49              ADDS     r1,r1,#1              ;761
000036  2920              CMP      r1,#0x20              ;761
000038  d3f4              BCC      |L16.36|
00003a  1c64              ADDS     r4,r4,#1              ;759
00003c  4564              CMP      r4,r12                ;759
00003e  d3ef              BCC      |L16.32|
;;;770          }
;;;771        }
;;;772      }
;;;773    }
000040  bdf0              POP      {r4-r7,pc}
                  |L16.66|
000042  8856              LDRH     r6,[r2,#2]            ;765  ; BackColor
000044  e7f5              B        |L16.50|
;;;774    
                          ENDP

000046  0000              DCW      0x0000
                  |L16.72|
                          DCD      0x60080000
                  |L16.76|
                          DCD      ||.data||
                  |L16.80|
                          DCD      0x60100000

                          AREA ||i.LCD_DrawRect||, CODE, READONLY, ALIGN=1

                  LCD_DrawRect PROC
;;;683      */
;;;684    void LCD_DrawRect(uint16_t Xpos, uint16_t Ypos, uint8_t Height, uint16_t Width)
000000  b5f0              PUSH     {r4-r7,lr}
;;;685    {
000002  461c              MOV      r4,r3
000004  4616              MOV      r6,r2
000006  4605              MOV      r5,r0
000008  460f              MOV      r7,r1
;;;686      LCD_DrawLine(Xpos, Ypos, Width, LCD_DIR_HORIZONTAL);
00000a  2300              MOVS     r3,#0
00000c  4622              MOV      r2,r4
00000e  f7fffffe          BL       LCD_DrawLine
;;;687      LCD_DrawLine((Xpos + Height), Ypos, Width, LCD_DIR_HORIZONTAL);
000012  19a8              ADDS     r0,r5,r6
000014  b280              UXTH     r0,r0
000016  2300              MOVS     r3,#0
000018  4622              MOV      r2,r4
00001a  4639              MOV      r1,r7
00001c  f7fffffe          BL       LCD_DrawLine
;;;688      
;;;689      LCD_DrawLine(Xpos, Ypos, Height, LCD_DIR_VERTICAL);
000020  2301              MOVS     r3,#1
000022  4632              MOV      r2,r6
000024  4639              MOV      r1,r7
000026  4628              MOV      r0,r5
000028  f7fffffe          BL       LCD_DrawLine
;;;690      LCD_DrawLine(Xpos, (Ypos - Width + 1), Height, LCD_DIR_VERTICAL);
00002c  1b38              SUBS     r0,r7,r4
00002e  1c40              ADDS     r0,r0,#1
000030  b281              UXTH     r1,r0
000032  4632              MOV      r2,r6
000034  4628              MOV      r0,r5
000036  e8bd40f0          POP      {r4-r7,lr}
00003a  2301              MOVS     r3,#1
00003c  f7ffbffe          B.W      LCD_DrawLine
;;;691    }
;;;692    
                          ENDP


                          AREA ||i.LCD_DrawUniLine||, CODE, READONLY, ALIGN=1

                  LCD_DrawUniLine PROC
;;;898      */
;;;899    void LCD_DrawUniLine(uint16_t x1, uint16_t y1, uint16_t x2, uint16_t y2)
000000  e92d4ffe          PUSH     {r1-r11,lr}
;;;900    {
000004  4604              MOV      r4,r0
;;;901      int16_t deltax = 0, deltay = 0, x = 0, y = 0, xinc1 = 0, xinc2 = 0, 
;;;902      yinc1 = 0, yinc2 = 0, den = 0, num = 0, numadd = 0, numpixels = 0, 
;;;903      curpixel = 0;
000006  2500              MOVS     r5,#0
;;;904      
;;;905      deltax = ABS(x2 - x1);        /* The difference between the x's */
000008  1b10              SUBS     r0,r2,r4
00000a  2800              CMP      r0,#0
00000c  dc00              BGT      |L18.16|
00000e  1aa0              SUBS     r0,r4,r2
                  |L18.16|
000010  b206              SXTH     r6,r0
;;;906      deltay = ABS(y2 - y1);        /* The difference between the y's */
000012  1a58              SUBS     r0,r3,r1
000014  2800              CMP      r0,#0
000016  dc00              BGT      |L18.26|
000018  1ac8              SUBS     r0,r1,r3
                  |L18.26|
00001a  b200              SXTH     r0,r0
;;;907      x = x1;                       /* Start x off at the first pixel */
00001c  fa0ff984          SXTH     r9,r4
;;;908      y = y1;                       /* Start y off at the first pixel */
000020  fa0ffa81          SXTH     r10,r1
;;;909      
;;;910      if (x2 >= x1)                 /* The x-values are increasing */
;;;911      {
;;;912        xinc1 = 1;
;;;913        xinc2 = 1;
;;;914      }
;;;915      else                          /* The x-values are decreasing */
;;;916      {
;;;917        xinc1 = -1;
000024  f04f38ff          MOV      r8,#0xffffffff
000028  42a2              CMP      r2,r4                 ;910
00002a  d303              BCC      |L18.52|
00002c  2201              MOVS     r2,#1                 ;912
00002e  4617              MOV      r7,r2                 ;913
000030  9200              STR      r2,[sp,#0]            ;913
000032  e002              B        |L18.58|
                  |L18.52|
000034  4647              MOV      r7,r8
000036  f8cd8000          STR      r8,[sp,#0]
                  |L18.58|
;;;918        xinc2 = -1;
;;;919      }
;;;920      
;;;921      if (y2 >= y1)                 /* The y-values are increasing */
00003a  428b              CMP      r3,r1
00003c  d303              BCC      |L18.70|
;;;922      {
;;;923        yinc1 = 1;
00003e  2101              MOVS     r1,#1
;;;924        yinc2 = 1;
000040  4688              MOV      r8,r1
000042  9101              STR      r1,[sp,#4]
000044  e001              B        |L18.74|
                  |L18.70|
;;;925      }
;;;926      else                          /* The y-values are decreasing */
;;;927      {
;;;928        yinc1 = -1;
000046  f8cd8004          STR      r8,[sp,#4]
                  |L18.74|
;;;929        yinc2 = -1;
;;;930      }
;;;931      
;;;932      if (deltax >= deltay)         /* There is at least one x-value for every y-value */
00004a  4602              MOV      r2,r0
00004c  4286              CMP      r6,r0
00004e  db08              BLT      |L18.98|
;;;933      {
;;;934        xinc1 = 0;                  /* Don't change the x when numerator >= denominator */
000050  2100              MOVS     r1,#0
;;;935        yinc2 = 0;                  /* Don't change the y for every iteration */
000052  4688              MOV      r8,r1
;;;936        den = deltax;
;;;937        num = deltax / 2;
000054  9100              STR      r1,[sp,#0]
000056  eb0671d6          ADD      r1,r6,r6,LSR #31
00005a  46b3              MOV      r11,r6                ;936
00005c  104c              ASRS     r4,r1,#1
;;;938        numadd = deltay;
;;;939        numpixels = deltax;         /* There are more x-values than y-values */
00005e  9202              STR      r2,[sp,#8]
000060  e028              B        |L18.180|
                  |L18.98|
;;;940      }
;;;941      else                          /* There is at least one y-value for every x-value */
;;;942      {
;;;943        xinc2 = 0;                  /* Don't change the x for every iteration */
000062  2700              MOVS     r7,#0
;;;944        yinc1 = 0;                  /* Don't change the y when numerator >= denominator */
;;;945        den = deltay;
;;;946        num = deltay / 2;
000064  4693              MOV      r11,r2
;;;947        numadd = deltax;
;;;948        numpixels = deltay;         /* There are more y-values than x-values */
000066  e9cd7601          STRD     r7,r6,[sp,#4]
00006a  eb0271db          ADD      r1,r2,r11,LSR #31     ;946
00006e  104c              ASRS     r4,r1,#1              ;946
000070  465e              MOV      r6,r11
000072  e01f              B        |L18.180|
                  |L18.116|
;;;949      }
;;;950      
;;;951      for (curpixel = 0; curpixel <= numpixels; curpixel++)
;;;952      {
;;;953        PutPixel(x, y);             /* Draw the current pixel */
000074  4651              MOV      r1,r10
000076  4648              MOV      r0,r9
000078  f7fffffe          BL       PutPixel
;;;954        num += numadd;              /* Increase the numerator by the top of the fraction */
00007c  9802              LDR      r0,[sp,#8]
00007e  1822              ADDS     r2,r4,r0
000080  b214              SXTH     r4,r2
;;;955        if (num >= den)             /* Check if numerator >= denominator */
000082  455c              CMP      r4,r11
000084  db0c              BLT      |L18.160|
;;;956        {
;;;957          num -= den;               /* Calculate the new numerator value */
000086  eba4020b          SUB      r2,r4,r11
;;;958          x += xinc1;               /* Change the x as appropriate */
00008a  9900              LDR      r1,[sp,#0]
00008c  b214              SXTH     r4,r2                 ;957
00008e  eb090201          ADD      r2,r9,r1
;;;959          y += yinc1;               /* Change the y as appropriate */
000092  9801              LDR      r0,[sp,#4]
000094  fa0ff982          SXTH     r9,r2                 ;958
000098  eb0a0200          ADD      r2,r10,r0
00009c  fa0ffa82          SXTH     r10,r2
                  |L18.160|
;;;960        }
;;;961        x += xinc2;                 /* Change the x as appropriate */
0000a0  eb090207          ADD      r2,r9,r7
0000a4  fa0ff982          SXTH     r9,r2
;;;962        y += yinc2;                 /* Change the y as appropriate */
0000a8  eb0a0208          ADD      r2,r10,r8
0000ac  1c6d              ADDS     r5,r5,#1              ;951
0000ae  fa0ffa82          SXTH     r10,r2
0000b2  b22d              SXTH     r5,r5                 ;951
                  |L18.180|
0000b4  42b5              CMP      r5,r6                 ;951
0000b6  dddd              BLE      |L18.116|
;;;963      }
;;;964    }
0000b8  e8bd8ffe          POP      {r1-r11,pc}
;;;965    
                          ENDP


                          AREA ||i.LCD_FSMCConfig||, CODE, READONLY, ALIGN=1

                  LCD_FSMCConfig PROC
;;;1354     */
;;;1355   void LCD_FSMCConfig(void)
000000  b500              PUSH     {lr}
;;;1356   {
;;;1357     FSMC_NORSRAMInitTypeDef  FSMC_NORSRAMInitStructure;
;;;1358     FSMC_NORSRAMTimingInitTypeDef  p;
;;;1359      
;;;1360     /* Enable FSMC clock */
;;;1361     RCC_AHB3PeriphClockCmd(RCC_AHB3Periph_FSMC, ENABLE);
000002  2101              MOVS     r1,#1
000004  b097              SUB      sp,sp,#0x5c           ;1356
000006  4608              MOV      r0,r1
000008  f7fffffe          BL       RCC_AHB3PeriphClockCmd
;;;1362     
;;;1363   /*-- FSMC Configuration ------------------------------------------------------*/
;;;1364   /*----------------------- SRAM Bank 1 ----------------------------------------*/
;;;1365     /* FSMC_Bank1_NORSRAM4 configuration */
;;;1366     p.FSMC_AddressSetupTime = 5;
00000c  2005              MOVS     r0,#5
;;;1367     p.FSMC_AddressHoldTime = 0;
00000e  900f              STR      r0,[sp,#0x3c]
000010  2000              MOVS     r0,#0
;;;1368     p.FSMC_DataSetupTime = 10;
000012  210a              MOVS     r1,#0xa
000014  e9cd0110          STRD     r0,r1,[sp,#0x40]
;;;1369     p.FSMC_BusTurnAroundDuration = 0;
;;;1370     p.FSMC_CLKDivision = 0;
000018  9012              STR      r0,[sp,#0x48]
;;;1371     p.FSMC_DataLatency = 0;
;;;1372     p.FSMC_AccessMode = FSMC_AccessMode_A;
;;;1373     /* Color LCD configuration ------------------------------------
;;;1374        LCD configured as follow:
;;;1375           - Data/Address MUX = Disable
;;;1376           - Memory Type = SRAM
;;;1377           - Data Width = 16bit
;;;1378           - Write Operation = Enable
;;;1379           - Extended Mode = Enable
;;;1380           - Asynchronous Wait = Disable */
;;;1381   
;;;1382     FSMC_NORSRAMInitStructure.FSMC_Bank = FSMC_Bank1_NORSRAM1;
;;;1383     FSMC_NORSRAMInitStructure.FSMC_DataAddressMux = FSMC_DataAddressMux_Disable;
;;;1384     FSMC_NORSRAMInitStructure.FSMC_MemoryType = FSMC_MemoryType_SRAM;
;;;1385     FSMC_NORSRAMInitStructure.FSMC_MemoryDataWidth = FSMC_MemoryDataWidth_16b;
00001a  2110              MOVS     r1,#0x10
00001c  e9cd0102          STRD     r0,r1,[sp,#8]
000020  9014              STR      r0,[sp,#0x50]         ;1372
000022  9015              STR      r0,[sp,#0x54]         ;1382
000024  9013              STR      r0,[sp,#0x4c]         ;1371
000026  9000              STR      r0,[sp,#0]            ;1383
000028  9001              STR      r0,[sp,#4]
;;;1386     FSMC_NORSRAMInitStructure.FSMC_BurstAccessMode = FSMC_BurstAccessMode_Disable;
;;;1387     FSMC_NORSRAMInitStructure.FSMC_AsynchronousWait = FSMC_AsynchronousWait_Disable;
00002a  9004              STR      r0,[sp,#0x10]
;;;1388     FSMC_NORSRAMInitStructure.FSMC_WaitSignalPolarity = FSMC_WaitSignalPolarity_Low;
00002c  9005              STR      r0,[sp,#0x14]
;;;1389     FSMC_NORSRAMInitStructure.FSMC_WrapMode = FSMC_WrapMode_Disable;
00002e  9006              STR      r0,[sp,#0x18]
;;;1390     FSMC_NORSRAMInitStructure.FSMC_WaitSignalActive = FSMC_WaitSignalActive_BeforeWaitState;
;;;1391     FSMC_NORSRAMInitStructure.FSMC_WriteOperation = FSMC_WriteOperation_Enable;
000030  0209              LSLS     r1,r1,#8
000032  9007              STR      r0,[sp,#0x1c]
000034  e9cd0108          STRD     r0,r1,[sp,#0x20]
;;;1392     FSMC_NORSRAMInitStructure.FSMC_WaitSignal = FSMC_WaitSignal_Disable;
;;;1393     FSMC_NORSRAMInitStructure.FSMC_ExtendedMode = FSMC_ExtendedMode_Disable;
000038  900a              STR      r0,[sp,#0x28]
;;;1394     FSMC_NORSRAMInitStructure.FSMC_WriteBurst = FSMC_WriteBurst_Disable;
00003a  900b              STR      r0,[sp,#0x2c]
;;;1395     FSMC_NORSRAMInitStructure.FSMC_ReadWriteTimingStruct = &p;
00003c  900c              STR      r0,[sp,#0x30]
00003e  a80f              ADD      r0,sp,#0x3c
;;;1396     FSMC_NORSRAMInitStructure.FSMC_WriteTimingStruct = &p;
000040  900d              STR      r0,[sp,#0x34]
;;;1397   
;;;1398     FSMC_NORSRAMInit(&FSMC_NORSRAMInitStructure);   
000042  900e              STR      r0,[sp,#0x38]
000044  4668              MOV      r0,sp
000046  f7fffffe          BL       FSMC_NORSRAMInit
;;;1399   
;;;1400     /* Enable FSMC NOR/SRAM Bank3 */
;;;1401     FSMC_NORSRAMCmd(FSMC_Bank1_NORSRAM1, ENABLE);
00004a  2101              MOVS     r1,#1
00004c  2000              MOVS     r0,#0
00004e  f7fffffe          BL       FSMC_NORSRAMCmd
;;;1402   }
000052  b017              ADD      sp,sp,#0x5c
000054  bd00              POP      {pc}
;;;1403   
                          ENDP


                          AREA ||i.LCD_FillPolyLine||, CODE, READONLY, ALIGN=2

                  LCD_FillPolyLine PROC
;;;1062     */
;;;1063   void LCD_FillPolyLine(pPoint Points, uint16_t PointCount)
000000  e92d4ff0          PUSH     {r4-r11,lr}
;;;1064   {
000004  460f              MOV      r7,r1
000006  ed2d8b02          VPUSH    {d8}
00000a  b0e7              SUB      sp,sp,#0x19c
;;;1065     /*  public-domain code by Darel Rex Finley, 2007 */
;;;1066     uint16_t  nodes = 0, nodeX[MAX_POLY_CORNERS], pixelX = 0, pixelY = 0, i = 0,
;;;1067     j = 0, swap = 0;
;;;1068     uint16_t  IMAGE_LEFT = 0, IMAGE_RIGHT = 0, IMAGE_TOP = 0, IMAGE_BOTTOM = 0;
;;;1069   
;;;1070     IMAGE_LEFT = IMAGE_RIGHT = Points->X;
00000c  f8b0a000          LDRH     r10,[r0,#0]
;;;1071     IMAGE_TOP= IMAGE_BOTTOM = Points->Y;
000010  f8cda198          STR      r10,[sp,#0x198]
000014  f8b09002          LDRH     r9,[r0,#2]
000018  4605              MOV      r5,r0                 ;1064
00001a  46cb              MOV      r11,r9
;;;1072   
;;;1073     for(i = 1; i < PointCount; i++)
00001c  2101              MOVS     r1,#1
00001e  e013              B        |L20.72|
                  |L20.32|
;;;1074     {
;;;1075       pixelX = POLY_X(i);
000020  eb050081          ADD      r0,r5,r1,LSL #2
;;;1076       if(pixelX < IMAGE_LEFT)
000024  9a66              LDR      r2,[sp,#0x198]
000026  8840              LDRH     r0,[r0,#2]            ;1075
000028  4290              CMP      r0,r2
00002a  d200              BCS      |L20.46|
;;;1077       {
;;;1078         IMAGE_LEFT = pixelX;
00002c  9066              STR      r0,[sp,#0x198]
                  |L20.46|
;;;1079       }
;;;1080       if(pixelX > IMAGE_RIGHT)
00002e  4550              CMP      r0,r10
000030  d900              BLS      |L20.52|
;;;1081       {
;;;1082         IMAGE_RIGHT = pixelX;
000032  4682              MOV      r10,r0
                  |L20.52|
;;;1083       }
;;;1084       
;;;1085       pixelY = POLY_Y(i);
000034  f8350021          LDRH     r0,[r5,r1,LSL #2]
;;;1086       if(pixelY < IMAGE_TOP)
000038  4548              CMP      r0,r9
00003a  d200              BCS      |L20.62|
;;;1087       { 
;;;1088         IMAGE_TOP = pixelY;
00003c  4681              MOV      r9,r0
                  |L20.62|
;;;1089       }
;;;1090       if(pixelY > IMAGE_BOTTOM)
00003e  4558              CMP      r0,r11
000040  d900              BLS      |L20.68|
;;;1091       {
;;;1092         IMAGE_BOTTOM = pixelY;
000042  4683              MOV      r11,r0
                  |L20.68|
000044  1c49              ADDS     r1,r1,#1              ;1073
000046  b289              UXTH     r1,r1                 ;1073
                  |L20.72|
000048  42b9              CMP      r1,r7                 ;1073
00004a  d3e9              BCC      |L20.32|
;;;1093       }
;;;1094     }
;;;1095     
;;;1096     LCD_SetTextColor(BackColor);  
00004c  485d              LDR      r0,|L20.452|
00004e  8841              LDRH     r1,[r0,#2]  ; BackColor
000050  8001              STRH     r1,[r0,#0]
;;;1097   
;;;1098     /*  Loop through the rows of the image. */
;;;1099     for (pixelY = IMAGE_TOP; pixelY < IMAGE_BOTTOM; pixelY++) 
000052  e0ab              B        |L20.428|
                  |L20.84|
;;;1100     {  
;;;1101       /* Build a list of nodes. */
;;;1102       nodes = 0; j = PointCount-1;
000054  2600              MOVS     r6,#0
000056  1e78              SUBS     r0,r7,#1
000058  fa1ff880          UXTH     r8,r0
;;;1103   
;;;1104       for (i = 0; i < PointCount; i++) 
00005c  4634              MOV      r4,r6
00005e  e051              B        |L20.260|
                  |L20.96|
;;;1105       {
;;;1106         if (((POLY_Y(i)<(double) pixelY) && (POLY_Y(j)>=(double) pixelY)) || \
000060  4648              MOV      r0,r9
000062  f7fffffe          BL       __aeabi_ui2d
000066  e9cd0164          STRD     r0,r1,[sp,#0x190]
00006a  ec410b18          VMOV     d8,r0,r1
00006e  f9350024          LDRSH    r0,[r5,r4,LSL #2]
000072  f7fffffe          BL       __aeabi_i2d
000076  ec532b18          VMOV     r2,r3,d8
00007a  f7fffffe          BL       __aeabi_cdcmple
00007e  d20c              BCS      |L20.154|
000080  e9dd0164          LDRD     r0,r1,[sp,#0x190]
000084  ec410b18          VMOV     d8,r0,r1
000088  f9350028          LDRSH    r0,[r5,r8,LSL #2]
00008c  f7fffffe          BL       __aeabi_i2d
000090  ec532b18          VMOV     r2,r3,d8
000094  f7fffffe          BL       __aeabi_cdrcmple
000098  d919              BLS      |L20.206|
                  |L20.154|
00009a  e9dd0164          LDRD     r0,r1,[sp,#0x190]
;;;1107             ((POLY_Y(j)<(double) pixelY) && (POLY_Y(i)>=(double) pixelY)))
00009e  ec410b18          VMOV     d8,r0,r1
0000a2  f9350028          LDRSH    r0,[r5,r8,LSL #2]
0000a6  f7fffffe          BL       __aeabi_i2d
0000aa  ec532b18          VMOV     r2,r3,d8
0000ae  f7fffffe          BL       __aeabi_cdcmple
0000b2  d224              BCS      |L20.254|
0000b4  e9dd0164          LDRD     r0,r1,[sp,#0x190]
0000b8  ec410b18          VMOV     d8,r0,r1
0000bc  f9350024          LDRSH    r0,[r5,r4,LSL #2]
0000c0  f7fffffe          BL       __aeabi_i2d
0000c4  ec532b18          VMOV     r2,r3,d8
0000c8  f7fffffe          BL       __aeabi_cdrcmple
0000cc  d817              BHI      |L20.254|
                  |L20.206|
;;;1108         {
;;;1109           nodeX[nodes++]=(int) (POLY_X(i)+((pixelY-POLY_Y(i))*(POLY_X(j)-POLY_X(i)))/(POLY_Y(j)-POLY_Y(i))); 
0000ce  eb050088          ADD      r0,r5,r8,LSL #2
0000d2  eb050184          ADD      r1,r5,r4,LSL #2
0000d6  f9b00002          LDRSH    r0,[r0,#2]
0000da  f9b12002          LDRSH    r2,[r1,#2]
0000de  1a81              SUBS     r1,r0,r2
0000e0  f9350024          LDRSH    r0,[r5,r4,LSL #2]
0000e4  eba90300          SUB      r3,r9,r0
0000e8  4359              MULS     r1,r3,r1
0000ea  f9353028          LDRSH    r3,[r5,r8,LSL #2]
0000ee  1a18              SUBS     r0,r3,r0
0000f0  fb91f0f0          SDIV     r0,r1,r0
0000f4  4410              ADD      r0,r0,r2
0000f6  f82d0016          STRH     r0,[sp,r6,LSL #1]
0000fa  1c76              ADDS     r6,r6,#1
0000fc  b2b6              UXTH     r6,r6
                  |L20.254|
;;;1110         }
;;;1111         j = i; 
0000fe  46a0              MOV      r8,r4
000100  1c64              ADDS     r4,r4,#1              ;1104
000102  b2a4              UXTH     r4,r4                 ;1104
                  |L20.260|
000104  42bc              CMP      r4,r7                 ;1104
000106  d3ab              BCC      |L20.96|
;;;1112       }
;;;1113     
;;;1114       /* Sort the nodes, via a simple "Bubble" sort. */
;;;1115       i = 0;
000108  2000              MOVS     r0,#0
;;;1116       while (i < nodes-1) 
00010a  f1a60c01          SUB      r12,r6,#1
;;;1117       {
;;;1118         if (nodeX[i]>nodeX[i+1]) 
;;;1119         {
;;;1120           swap = nodeX[i]; 
;;;1121           nodeX[i] = nodeX[i+1]; 
;;;1122           nodeX[i+1] = swap; 
;;;1123           if(i)
;;;1124           {
;;;1125             i--; 
;;;1126           }
;;;1127         }
;;;1128         else 
;;;1129         {
;;;1130           i++;
00010e  e00d              B        |L20.300|
                  |L20.272|
000110  4669              MOV      r1,sp                 ;1118
000112  eb010340          ADD      r3,r1,r0,LSL #1       ;1118
000116  f83d2010          LDRH     r2,[sp,r0,LSL #1]     ;1118
00011a  885c              LDRH     r4,[r3,#2]            ;1118
00011c  42a2              CMP      r2,r4                 ;1118
00011e  d909              BLS      |L20.308|
000120  f8214010          STRH     r4,[r1,r0,LSL #1]     ;1121
000124  805a              STRH     r2,[r3,#2]            ;1122
000126  b108              CBZ      r0,|L20.300|
000128  1e40              SUBS     r0,r0,#1              ;1125
                  |L20.298|
00012a  b280              UXTH     r0,r0
                  |L20.300|
00012c  4560              CMP      r0,r12                ;1116
00012e  dbef              BLT      |L20.272|
;;;1131         }
;;;1132       }
;;;1133     
;;;1134       /*  Fill the pixels between node pairs. */
;;;1135       for (i = 0; i < nodes; i+=2) 
000130  2400              MOVS     r4,#0
000132  e035              B        |L20.416|
                  |L20.308|
000134  1c40              ADDS     r0,r0,#1              ;1130
000136  e7f8              B        |L20.298|
                  |L20.312|
;;;1136       {
;;;1137         if(nodeX[i] >= IMAGE_RIGHT) 
000138  f83d1014          LDRH     r1,[sp,r4,LSL #1]
00013c  466b              MOV      r3,sp
00013e  4551              CMP      r1,r10
000140  d230              BCS      |L20.420|
;;;1138         {
;;;1139           break;
;;;1140         }
;;;1141         if(nodeX[i+1] > IMAGE_LEFT) 
000142  eb030844          ADD      r8,r3,r4,LSL #1
000146  9a66              LDR      r2,[sp,#0x198]
000148  f8b80002          LDRH     r0,[r8,#2]
00014c  4290              CMP      r0,r2
00014e  d925              BLS      |L20.412|
;;;1142         {
;;;1143           if (nodeX[i] < IMAGE_LEFT)
000150  4291              CMP      r1,r2
000152  d201              BCS      |L20.344|
;;;1144           {
;;;1145             nodeX[i]=IMAGE_LEFT;
000154  f8232014          STRH     r2,[r3,r4,LSL #1]
                  |L20.344|
;;;1146           }
;;;1147           if(nodeX[i+1] > IMAGE_RIGHT)
000158  4550              CMP      r0,r10
00015a  d901              BLS      |L20.352|
;;;1148           {
;;;1149             nodeX[i+1] = IMAGE_RIGHT;
00015c  f8a8a002          STRH     r10,[r8,#2]
                  |L20.352|
;;;1150           }
;;;1151           LCD_SetTextColor(BackColor);
000160  4818              LDR      r0,|L20.452|
000162  8840              LDRH     r0,[r0,#2]  ; BackColor
000164  4917              LDR      r1,|L20.452|
000166  8008              STRH     r0,[r1,#0]
;;;1152           LCD_DrawLine(pixelY, nodeX[i+1], nodeX[i+1] - nodeX[i], LCD_DIR_HORIZONTAL);
000168  f8b81002          LDRH     r1,[r8,#2]
00016c  f8330014          LDRH     r0,[r3,r4,LSL #1]
000170  2300              MOVS     r3,#0
000172  1a08              SUBS     r0,r1,r0
000174  b282              UXTH     r2,r0
000176  4648              MOV      r0,r9
000178  f7fffffe          BL       LCD_DrawLine
;;;1153           LCD_SetTextColor(TextColor);
00017c  4811              LDR      r0,|L20.452|
00017e  8800              LDRH     r0,[r0,#0]  ; TextColor
000180  4910              LDR      r1,|L20.452|
000182  8008              STRH     r0,[r1,#0]
;;;1154           PutPixel(pixelY, nodeX[i+1]);
000184  f9b81002          LDRSH    r1,[r8,#2]
000188  fa0ff089          SXTH     r0,r9
00018c  4680              MOV      r8,r0
00018e  f7fffffe          BL       PutPixel
;;;1155           PutPixel(pixelY, nodeX[i]);
000192  f93d1014          LDRSH    r1,[sp,r4,LSL #1]
000196  4640              MOV      r0,r8
000198  f7fffffe          BL       PutPixel
                  |L20.412|
00019c  1ca4              ADDS     r4,r4,#2              ;1135
00019e  b2a4              UXTH     r4,r4                 ;1135
                  |L20.416|
0001a0  42b4              CMP      r4,r6                 ;1135
0001a2  d3c9              BCC      |L20.312|
                  |L20.420|
0001a4  f1090901          ADD      r9,r9,#1              ;1099
0001a8  fa1ff989          UXTH     r9,r9                 ;1099
                  |L20.428|
0001ac  45d9              CMP      r9,r11                ;1099
0001ae  f4ffaf51          BCC      |L20.84|
;;;1156           /* for (j=nodeX[i]; j<nodeX[i+1]; j++) PutPixel(j,pixelY); */
;;;1157         }
;;;1158       }
;;;1159     } 
;;;1160   
;;;1161     /* draw the edges */
;;;1162     LCD_SetTextColor(TextColor);
0001b2  4804              LDR      r0,|L20.452|
0001b4  8801              LDRH     r1,[r0,#0]  ; TextColor
0001b6  8001              STRH     r1,[r0,#0]
;;;1163   }
0001b8  b067              ADD      sp,sp,#0x19c
0001ba  ecbd8b02          VPOP     {d8}
0001be  e8bd8ff0          POP      {r4-r11,pc}
;;;1164   
                          ENDP

0001c2  0000              DCW      0x0000
                  |L20.452|
                          DCD      ||.data||

                          AREA ||i.LCD_GetColors||, CODE, READONLY, ALIGN=2

                  LCD_GetColors PROC
;;;423      */
;;;424    void LCD_GetColors(__IO uint16_t *_TextColor, __IO uint16_t *_BackColor)
000000  4a02              LDR      r2,|L21.12|
;;;425    {
;;;426      *_TextColor = TextColor; *_BackColor = BackColor;
000002  8813              LDRH     r3,[r2,#0]  ; TextColor
000004  8003              STRH     r3,[r0,#0]
000006  8850              LDRH     r0,[r2,#2]  ; BackColor
000008  8008              STRH     r0,[r1,#0]
;;;427    }
00000a  4770              BX       lr
;;;428    
                          ENDP

                  |L21.12|
                          DCD      ||.data||

                          AREA ||i.LCD_GetFont||, CODE, READONLY, ALIGN=2

                  LCD_GetFont PROC
;;;464      */
;;;465    sFONT *LCD_GetFont(void)
000000  4801              LDR      r0,|L22.8|
;;;466    {
;;;467      return LCD_Currentfonts;
000002  6840              LDR      r0,[r0,#4]  ; LCD_Currentfonts
;;;468    }
000004  4770              BX       lr
;;;469    
                          ENDP

000006  0000              DCW      0x0000
                  |L22.8|
                          DCD      ||.data||

                          AREA ||i.LCD_PolyLine||, CODE, READONLY, ALIGN=1

                  LCD_PolyLine PROC
;;;971      */
;;;972    void LCD_PolyLine(pPoint Points, uint16_t PointCount)
000000  b570              PUSH     {r4-r6,lr}
;;;973    {
000002  4604              MOV      r4,r0
000004  460d              MOV      r5,r1
;;;974      int16_t X = 0, Y = 0;
;;;975    
;;;976      if(PointCount < 2)
000006  2902              CMP      r1,#2
000008  d30d              BCC      |L23.38|
00000a  e008              B        |L23.30|
                  |L23.12|
;;;977      {
;;;978        return;
;;;979      }
;;;980    
;;;981      while(--PointCount)
;;;982      {
;;;983        X = Points->X;
00000c  8820              LDRH     r0,[r4,#0]
;;;984        Y = Points->Y;
00000e  8861              LDRH     r1,[r4,#2]
;;;985        Points++;
000010  1d24              ADDS     r4,r4,#4
;;;986        LCD_DrawUniLine(X, Y, Points->X, Points->Y);
000012  b289              UXTH     r1,r1
000014  8863              LDRH     r3,[r4,#2]
000016  8822              LDRH     r2,[r4,#0]
000018  b280              UXTH     r0,r0
00001a  f7fffffe          BL       LCD_DrawUniLine
                  |L23.30|
00001e  1e6d              SUBS     r5,r5,#1              ;981
000020  042d              LSLS     r5,r5,#16             ;981
000022  0c2d              LSRS     r5,r5,#16             ;981
000024  d1f2              BNE      |L23.12|
                  |L23.38|
;;;987      }
;;;988    }
000026  bd70              POP      {r4-r6,pc}
;;;989    
                          ENDP


                          AREA ||i.LCD_PolyLineRelative||, CODE, READONLY, ALIGN=1

                  LCD_PolyLineRelative PROC
;;;1039     */
;;;1040   void LCD_PolyLineRelative(pPoint Points, uint16_t PointCount)
000000  2200              MOVS     r2,#0
;;;1041   {
;;;1042     LCD_PolyLineRelativeClosed(Points, PointCount, 0);
000002  f7ffbffe          B.W      LCD_PolyLineRelativeClosed
;;;1043   }
;;;1044   
                          ENDP


                          AREA ||i.LCD_PolyLineRelativeClosed||, CODE, READONLY, ALIGN=1

                  LCD_PolyLineRelativeClosed PROC
;;;997      */
;;;998    static void LCD_PolyLineRelativeClosed(pPoint Points, uint16_t PointCount, uint16_t Closed)
000000  e92d47f0          PUSH     {r4-r10,lr}
;;;999    {
000004  460f              MOV      r7,r1
000006  4691              MOV      r9,r2
000008  4604              MOV      r4,r0
;;;1000     int16_t X = 0, Y = 0;
;;;1001     pPoint First = Points;
00000a  4680              MOV      r8,r0
;;;1002   
;;;1003     if(PointCount < 2)
00000c  2902              CMP      r1,#2
00000e  d326              BCC      |L25.94|
;;;1004     {
;;;1005       return;
;;;1006     }  
;;;1007     X = Points->X;
000010  f9b45000          LDRSH    r5,[r4,#0]
;;;1008     Y = Points->Y;
000014  f9b46002          LDRSH    r6,[r4,#2]
;;;1009     while(--PointCount)
000018  e010              B        |L25.60|
                  |L25.26|
;;;1010     {
;;;1011       Points++;
00001a  1d24              ADDS     r4,r4,#4
;;;1012       LCD_DrawUniLine(X, Y, X + Points->X, Y + Points->Y);
00001c  b2b1              UXTH     r1,r6
00001e  8860              LDRH     r0,[r4,#2]
000020  4430              ADD      r0,r0,r6
000022  b283              UXTH     r3,r0
000024  8820              LDRH     r0,[r4,#0]
000026  4428              ADD      r0,r0,r5
000028  b282              UXTH     r2,r0
00002a  b2a8              UXTH     r0,r5
00002c  f7fffffe          BL       LCD_DrawUniLine
;;;1013       X = X + Points->X;
000030  8820              LDRH     r0,[r4,#0]
000032  4428              ADD      r0,r0,r5
000034  b205              SXTH     r5,r0
;;;1014       Y = Y + Points->Y;
000036  8860              LDRH     r0,[r4,#2]
000038  4430              ADD      r0,r0,r6
00003a  b206              SXTH     r6,r0
                  |L25.60|
00003c  1e7f              SUBS     r7,r7,#1              ;1009
00003e  043f              LSLS     r7,r7,#16             ;1009
000040  0c3f              LSRS     r7,r7,#16             ;1009
000042  d1ea              BNE      |L25.26|
;;;1015     }
;;;1016     if(Closed)
000044  f1b90f00          CMP      r9,#0
000048  d009              BEQ      |L25.94|
;;;1017     {
;;;1018       LCD_DrawUniLine(First->X, First->Y, X, Y);
00004a  f8b81002          LDRH     r1,[r8,#2]
00004e  f8b80000          LDRH     r0,[r8,#0]
000052  b2b3              UXTH     r3,r6
000054  b2aa              UXTH     r2,r5
000056  e8bd47f0          POP      {r4-r10,lr}
00005a  f7ffbffe          B.W      LCD_DrawUniLine
                  |L25.94|
;;;1019     }  
;;;1020   }
00005e  e8bd87f0          POP      {r4-r10,pc}
;;;1021   
                          ENDP


                          AREA ||i.LCD_PowerOn||, CODE, READONLY, ALIGN=1

                  LCD_PowerOn PROC
;;;1238     */
;;;1239   void LCD_PowerOn(void)
000000  b510              PUSH     {r4,lr}
;;;1240   {
;;;1241   /* Power On sequence ---------------------------------------------------------*/
;;;1242     LCD_WriteReg(LCD_REG_16, 0x0000); /* SAP, BT[3:0], AP, DSTB, SLP, STB */
000002  2100              MOVS     r1,#0
000004  2010              MOVS     r0,#0x10
000006  f7fffffe          BL       LCD_WriteReg
;;;1243     LCD_WriteReg(LCD_REG_17, 0x0000); /* DC1[2:0], DC0[2:0], VC[2:0] */
00000a  2100              MOVS     r1,#0
00000c  2011              MOVS     r0,#0x11
00000e  f7fffffe          BL       LCD_WriteReg
;;;1244     LCD_WriteReg(LCD_REG_18, 0x0000); /* VREG1OUT voltage */
000012  2100              MOVS     r1,#0
000014  2012              MOVS     r0,#0x12
000016  f7fffffe          BL       LCD_WriteReg
;;;1245     LCD_WriteReg(LCD_REG_19, 0x0000); /* VDV[4:0] for VCOM amplitude*/
00001a  2100              MOVS     r1,#0
00001c  2013              MOVS     r0,#0x13
00001e  f7fffffe          BL       LCD_WriteReg
;;;1246     _delay_(20);                 /* Dis-charge capacitor power voltage (200ms) */
000022  2014              MOVS     r0,#0x14
000024  f7fffffe          BL       delay
;;;1247     LCD_WriteReg(LCD_REG_16, 0x17B0); /* SAP, BT[3:0], AP, DSTB, SLP, STB */
000028  f24171b0          MOV      r1,#0x17b0
00002c  2010              MOVS     r0,#0x10
00002e  f7fffffe          BL       LCD_WriteReg
;;;1248     LCD_WriteReg(LCD_REG_17, 0x0137); /* DC1[2:0], DC0[2:0], VC[2:0] */
000032  f2401137          MOV      r1,#0x137
000036  2011              MOVS     r0,#0x11
000038  f7fffffe          BL       LCD_WriteReg
;;;1249     _delay_(5);                  /* Delay 50 ms */
00003c  2005              MOVS     r0,#5
00003e  f7fffffe          BL       delay
;;;1250     LCD_WriteReg(LCD_REG_18, 0x0139); /* VREG1OUT voltage */
000042  f2401139          MOV      r1,#0x139
000046  2012              MOVS     r0,#0x12
000048  f7fffffe          BL       LCD_WriteReg
;;;1251     _delay_(5);                  /* Delay 50 ms */
00004c  2005              MOVS     r0,#5
00004e  f7fffffe          BL       delay
;;;1252     LCD_WriteReg(LCD_REG_19, 0x1d00); /* VDV[4:0] for VCOM amplitude */
000052  f44f51e8          MOV      r1,#0x1d00
000056  2013              MOVS     r0,#0x13
000058  f7fffffe          BL       LCD_WriteReg
;;;1253     LCD_WriteReg(LCD_REG_41, 0x0013); /* VCM[4:0] for VCOMH */
00005c  2113              MOVS     r1,#0x13
00005e  2029              MOVS     r0,#0x29
000060  f7fffffe          BL       LCD_WriteReg
;;;1254     _delay_(5);                  /* Delay 50 ms */
000064  2005              MOVS     r0,#5
000066  f7fffffe          BL       delay
;;;1255     LCD_WriteReg(LCD_REG_7, 0x0173);  /* 262K color and display ON */
00006a  e8bd4010          POP      {r4,lr}
00006e  f2401173          MOV      r1,#0x173
000072  2007              MOVS     r0,#7
000074  f7ffbffe          B.W      LCD_WriteReg
;;;1256   }
;;;1257   
                          ENDP


                          AREA ||i.LCD_ReadRAM||, CODE, READONLY, ALIGN=2

                  LCD_ReadRAM PROC
;;;1223     */
;;;1224   uint16_t LCD_ReadRAM(void)
000000  4902              LDR      r1,|L27.12|
;;;1225   {
;;;1226     /* Write 16-bit Index (then Read Reg) */
;;;1227   //  LCD->LCD_REG = LCD_REG_34; /* Select GRAM Reg */
;;;1228     LCD_REG16 = LCD_REG_34; /* Select GRAM Reg */
000002  2022              MOVS     r0,#0x22
000004  8008              STRH     r0,[r1,#0]
;;;1229     /* Read 16-bit Reg */
;;;1230   //  return LCD->LCD_RAM;
;;;1231     return LCD_DAT16;
000006  4802              LDR      r0,|L27.16|
000008  8800              LDRH     r0,[r0,#0]
;;;1232   }
00000a  4770              BX       lr
;;;1233   
                          ENDP

                  |L27.12|
                          DCD      0x60080000
                  |L27.16|
                          DCD      0x60100000

                          AREA ||i.LCD_ReadReg||, CODE, READONLY, ALIGN=2

                  LCD_ReadReg PROC
;;;1185     */
;;;1186   uint16_t LCD_ReadReg(uint8_t LCD_Reg)
000000  4902              LDR      r1,|L28.12|
;;;1187   {
;;;1188     /* Write 16-bit Index (then Read Reg) */
;;;1189   //  LCD->LCD_REG = LCD_Reg;
;;;1190     LCD_REG16 = LCD_Reg;
000002  8008              STRH     r0,[r1,#0]
;;;1191     /* Read 16-bit Reg */
;;;1192   //  return (LCD->LCD_RAM);
;;;1193     return (LCD_DAT16);
000004  4802              LDR      r0,|L28.16|
000006  8800              LDRH     r0,[r0,#0]
;;;1194   }
000008  4770              BX       lr
;;;1195   
                          ENDP

00000a  0000              DCW      0x0000
                  |L28.12|
                          DCD      0x60080000
                  |L28.16|
                          DCD      0x60100000

                          AREA ||i.LCD_SetBackColor||, CODE, READONLY, ALIGN=2

                  LCD_SetBackColor PROC
;;;444      */
;;;445    void LCD_SetBackColor(__IO uint16_t Color)
000000  4901              LDR      r1,|L29.8|
;;;446    {
;;;447      BackColor = Color;
000002  8048              STRH     r0,[r1,#2]
;;;448    }
000004  4770              BX       lr
;;;449    
                          ENDP

000006  0000              DCW      0x0000
                  |L29.8|
                          DCD      ||.data||

                          AREA ||i.LCD_SetColors||, CODE, READONLY, ALIGN=2

                  LCD_SetColors PROC
;;;409      */
;;;410    void LCD_SetColors(__IO uint16_t _TextColor, __IO uint16_t _BackColor)
000000  4a01              LDR      r2,|L30.8|
;;;411    {
;;;412      TextColor = _TextColor; 
000002  8010              STRH     r0,[r2,#0]
;;;413      BackColor = _BackColor;
000004  8051              STRH     r1,[r2,#2]
;;;414    }
000006  4770              BX       lr
;;;415    
                          ENDP

                  |L30.8|
                          DCD      ||.data||

                          AREA ||i.LCD_SetCursor||, CODE, READONLY, ALIGN=1

                  LCD_SetCursor PROC
;;;513      */
;;;514    void LCD_SetCursor(uint16_t Xpos, uint16_t Ypos)
000000  460b              MOV      r3,r1
;;;515    {
000002  b500              PUSH     {lr}
;;;516      LCD_WriteReg(LCD_REG_32, Xpos);
000004  4601              MOV      r1,r0
000006  2020              MOVS     r0,#0x20
000008  f7fffffe          BL       LCD_WriteReg
;;;517      LCD_WriteReg(LCD_REG_33, Ypos);
00000c  4619              MOV      r1,r3
00000e  2021              MOVS     r0,#0x21
000010  f85deb04          POP      {lr}
000014  f7ffbffe          B.W      LCD_WriteReg
;;;518    }
;;;519    
                          ENDP


                          AREA ||i.LCD_SetDisplayWindow||, CODE, READONLY, ALIGN=1

                  LCD_SetDisplayWindow PROC
;;;603      */
;;;604    void LCD_SetDisplayWindow(uint16_t Xpos, uint16_t Ypos, uint8_t Height, uint16_t Width)
000000  b530              PUSH     {r4,r5,lr}
;;;605    {
000002  4604              MOV      r4,r0
000004  460d              MOV      r5,r1
;;;606      /* Horizontal GRAM Start Address */
;;;607      if(Xpos >= Height)
000006  4290              CMP      r0,r2
000008  d303              BCC      |L32.18|
;;;608      {
;;;609        LCD_WriteReg(LCD_REG_80, (Xpos - Height + 1));
00000a  1aa0              SUBS     r0,r4,r2
00000c  1c40              ADDS     r0,r0,#1
00000e  b281              UXTH     r1,r0
000010  e000              B        |L32.20|
                  |L32.18|
;;;610      }
;;;611      else
;;;612      {
;;;613        LCD_WriteReg(LCD_REG_80, 0);
000012  2100              MOVS     r1,#0
                  |L32.20|
000014  2050              MOVS     r0,#0x50
000016  f7fffffe          BL       LCD_WriteReg
;;;614      }
;;;615      /* Horizontal GRAM End Address */
;;;616      LCD_WriteReg(LCD_REG_81, Xpos);
00001a  4621              MOV      r1,r4
00001c  2051              MOVS     r0,#0x51
00001e  f7fffffe          BL       LCD_WriteReg
;;;617      /* Vertical GRAM Start Address */
;;;618      if(Ypos >= Width)
000022  429d              CMP      r5,r3
000024  d303              BCC      |L32.46|
;;;619      {
;;;620        LCD_WriteReg(LCD_REG_82, (Ypos - Width + 1));
000026  1ae8              SUBS     r0,r5,r3
000028  1c40              ADDS     r0,r0,#1
00002a  b281              UXTH     r1,r0
00002c  e000              B        |L32.48|
                  |L32.46|
;;;621      }  
;;;622      else
;;;623      {
;;;624        LCD_WriteReg(LCD_REG_82, 0);
00002e  2100              MOVS     r1,#0
                  |L32.48|
000030  2052              MOVS     r0,#0x52
000032  f7fffffe          BL       LCD_WriteReg
;;;625      }
;;;626      /* Vertical GRAM End Address */
;;;627      LCD_WriteReg(LCD_REG_83, Ypos);
000036  4629              MOV      r1,r5
000038  2053              MOVS     r0,#0x53
00003a  f7fffffe          BL       LCD_WriteReg
;;;628      LCD_SetCursor(Xpos, Ypos);
00003e  4629              MOV      r1,r5
000040  4620              MOV      r0,r4
000042  e8bd4030          POP      {r4,r5,lr}
000046  f7ffbffe          B.W      LCD_SetCursor
;;;629    }
;;;630    
                          ENDP


                          AREA ||i.LCD_SetFont||, CODE, READONLY, ALIGN=2

                  LCD_SetFont PROC
;;;454      */
;;;455    void LCD_SetFont(sFONT *fonts)
000000  4901              LDR      r1,|L33.8|
;;;456    {
;;;457      LCD_Currentfonts = fonts;
000002  6048              STR      r0,[r1,#4]  ; LCD_Currentfonts
;;;458    }
000004  4770              BX       lr
;;;459    
                          ENDP

000006  0000              DCW      0x0000
                  |L33.8|
                          DCD      ||.data||

                          AREA ||i.LCD_SetTextColor||, CODE, READONLY, ALIGN=2

                  LCD_SetTextColor PROC
;;;433      */
;;;434    void LCD_SetTextColor(__IO uint16_t Color)
000000  4901              LDR      r1,|L34.8|
;;;435    {
;;;436      TextColor = Color;
000002  8008              STRH     r0,[r1,#0]
;;;437    }
000004  4770              BX       lr
;;;438    
                          ENDP

000006  0000              DCW      0x0000
                  |L34.8|
                          DCD      ||.data||

                          AREA ||i.LCD_WindowModeDisable||, CODE, READONLY, ALIGN=1

                  LCD_WindowModeDisable PROC
;;;635      */
;;;636    void LCD_WindowModeDisable(void)
000000  b500              PUSH     {lr}
;;;637    {
;;;638      LCD_SetDisplayWindow(239, 0x13F, 240, 320);
000002  f44f73a0          MOV      r3,#0x140
000006  22f0              MOVS     r2,#0xf0
000008  1e59              SUBS     r1,r3,#1
00000a  20ef              MOVS     r0,#0xef
00000c  f7fffffe          BL       LCD_SetDisplayWindow
;;;639      LCD_WriteReg(LCD_REG_3, 0x1018);    
000010  f2410118          MOV      r1,#0x1018
000014  2003              MOVS     r0,#3
000016  f85deb04          POP      {lr}
00001a  f7ffbffe          B.W      LCD_WriteReg
;;;640    }
;;;641    
                          ENDP


                          AREA ||i.LCD_WriteBMP||, CODE, READONLY, ALIGN=2

                  LCD_WriteBMP PROC
;;;779      */
;;;780    void LCD_WriteBMP(uint32_t BmpAddress)
000000  b510              PUSH     {r4,lr}
;;;781    {
;;;782      uint32_t index = 0, size = 0;
;;;783      /* Read bitmap size */
;;;784      size = *(__IO uint16_t *) (BmpAddress + 2);
000002  8841              LDRH     r1,[r0,#2]
;;;785      size |= (*(__IO uint16_t *) (BmpAddress + 4)) << 16;
000004  8882              LDRH     r2,[r0,#4]
000006  ea414202          ORR      r2,r1,r2,LSL #16
;;;786      /* Get bitmap data address offset */
;;;787      index = *(__IO uint16_t *) (BmpAddress + 10);
00000a  8941              LDRH     r1,[r0,#0xa]
;;;788      index |= (*(__IO uint16_t *) (BmpAddress + 12)) << 16;
00000c  8983              LDRH     r3,[r0,#0xc]
00000e  ea414103          ORR      r1,r1,r3,LSL #16
;;;789      size = (size - index)/2;
000012  1a52              SUBS     r2,r2,r1
;;;790      BmpAddress += index;
000014  1843              ADDS     r3,r0,r1
000016  0854              LSRS     r4,r2,#1              ;789
;;;791      /* Set GRAM write direction and BGR = 1 */
;;;792      /* I/D=00 (Horizontal : decrement, Vertical : decrement) */
;;;793      /* AM=1 (address is updated in vertical writing direction) */
;;;794      LCD_WriteReg(LCD_REG_3, 0x1008);
000018  f2410108          MOV      r1,#0x1008
00001c  2003              MOVS     r0,#3
00001e  f7fffffe          BL       LCD_WriteReg
000022  490a              LDR      r1,|L36.76|
000024  2022              MOVS     r0,#0x22
000026  8008              STRH     r0,[r1,#0]
;;;795     
;;;796      LCD_WriteRAM_Prepare();
;;;797     
;;;798      for(index = 0; index < size; index++)
000028  2000              MOVS     r0,#0
00002a  4a09              LDR      r2,|L36.80|
00002c  e004              B        |L36.56|
;;;799      {
;;;800        LCD_WriteRAM(*(__IO uint16_t *)BmpAddress);
00002e  bf00              NOP      
                  |L36.48|
000030  f8331b02          LDRH     r1,[r3],#2
000034  8011              STRH     r1,[r2,#0]
000036  1c40              ADDS     r0,r0,#1              ;798
                  |L36.56|
000038  42a0              CMP      r0,r4                 ;798
00003a  d3f9              BCC      |L36.48|
;;;801        BmpAddress += 2;
;;;802      }
;;;803     
;;;804      /* Set GRAM write direction and BGR = 1 */
;;;805      /* I/D = 01 (Horizontal : increment, Vertical : decrement) */
;;;806      /* AM = 1 (address is updated in vertical writing direction) */
;;;807      LCD_WriteReg(LCD_REG_3, 0x1018);
00003c  e8bd4010          POP      {r4,lr}
000040  f2410118          MOV      r1,#0x1018
000044  2003              MOVS     r0,#3
000046  f7ffbffe          B.W      LCD_WriteReg
;;;808    }
;;;809    
                          ENDP

00004a  0000              DCW      0x0000
                  |L36.76|
                          DCD      0x60080000
                  |L36.80|
                          DCD      0x60100000

                          AREA ||i.LCD_WriteRAM||, CODE, READONLY, ALIGN=2

                  LCD_WriteRAM PROC
;;;1211     */
;;;1212   void LCD_WriteRAM(uint16_t RGB_Code)
000000  4901              LDR      r1,|L37.8|
;;;1213   {
;;;1214     /* Write 16-bit GRAM Reg */
;;;1215   //  LCD->LCD_RAM = RGB_Code;
;;;1216     LCD_DAT16 = RGB_Code;
000002  8008              STRH     r0,[r1,#0]
;;;1217   }
000004  4770              BX       lr
;;;1218   
                          ENDP

000006  0000              DCW      0x0000
                  |L37.8|
                          DCD      0x60100000

                          AREA ||i.LCD_WriteRAM_Prepare||, CODE, READONLY, ALIGN=2

                  LCD_WriteRAM_Prepare PROC
;;;1200     */
;;;1201   void LCD_WriteRAM_Prepare(void)
000000  4901              LDR      r1,|L38.8|
;;;1202   {
;;;1203   //  LCD->LCD_REG = LCD_REG_34;
;;;1204     LCD_REG16 = LCD_REG_34;
000002  2022              MOVS     r0,#0x22
000004  8008              STRH     r0,[r1,#0]
;;;1205   }
000006  4770              BX       lr
;;;1206   
                          ENDP

                  |L38.8|
                          DCD      0x60080000

                          AREA ||i.LCD_WriteReg||, CODE, READONLY, ALIGN=2

                  LCD_WriteReg PROC
;;;1170     */
;;;1171   void LCD_WriteReg(uint8_t LCD_Reg, uint16_t LCD_RegValue)
000000  4a02              LDR      r2,|L39.12|
;;;1172   {
;;;1173     /* Write 16-bit Index, then Write Reg */
;;;1174   //  LCD->LCD_REG = LCD_Reg;
;;;1175     LCD_REG16 = LCD_Reg;
000002  8010              STRH     r0,[r2,#0]
;;;1176     /* Write 16-bit Reg */
;;;1177   //  LCD->LCD_RAM = LCD_RegValue;
;;;1178     LCD_DAT16 = LCD_RegValue; 
000004  4802              LDR      r0,|L39.16|
000006  8001              STRH     r1,[r0,#0]
;;;1179   }
000008  4770              BX       lr
;;;1180   
                          ENDP

00000a  0000              DCW      0x0000
                  |L39.12|
                          DCD      0x60080000
                  |L39.16|
                          DCD      0x60100000

                          AREA ||i.PutPixel||, CODE, READONLY, ALIGN=1

                  PutPixel PROC
;;;1409     */
;;;1410   static void PutPixel(int16_t x, int16_t y)
000000  28f0              CMP      r0,#0xf0
;;;1411   { 
;;;1412     if(x < 0 || x > 239 || y < 0 || y > 319)
000002  d20a              BCS      |L40.26|
000004  2900              CMP      r1,#0
000006  db08              BLT      |L40.26|
000008  f5b17fa0          CMP      r1,#0x140
00000c  da05              BGE      |L40.26|
;;;1413     {
;;;1414       return;  
;;;1415     }
;;;1416     LCD_DrawLine(x, y, 1, LCD_DIR_HORIZONTAL);
00000e  2300              MOVS     r3,#0
000010  2201              MOVS     r2,#1
000012  b289              UXTH     r1,r1
000014  b280              UXTH     r0,r0
000016  f7ffbffe          B.W      LCD_DrawLine
                  |L40.26|
;;;1417   }
00001a  4770              BX       lr
;;;1418   
                          ENDP


                          AREA ||i.STM324xG_LCD_Init||, CODE, READONLY, ALIGN=2

                  STM324xG_LCD_Init PROC
;;;229      */
;;;230    void STM324xG_LCD_Init(void)
000000  b510              PUSH     {r4,lr}
;;;231    { 
;;;232      __IO uint32_t lcdid = 0;
;;;233      
;;;234    /* Configure the LCD Control pins --------------------------------------------*/
;;;235      LCD_CtrlLinesConfig();
000002  f7fffffe          BL       LCD_CtrlLinesConfig
;;;236    
;;;237    /* Configure the FSMC Parallel interface -------------------------------------*/
;;;238      LCD_FSMCConfig();
000006  f7fffffe          BL       LCD_FSMCConfig
;;;239    
;;;240      _delay_(5); /* delay 50 ms */
00000a  2005              MOVS     r0,#5
00000c  f7fffffe          BL       delay
;;;241    
;;;242      /* Read the LCD ID */
;;;243      lcdid = LCD_ReadReg(0x00);  
000010  2000              MOVS     r0,#0
000012  f7fffffe          BL       LCD_ReadReg
;;;244      lcdid = 0x9320; 
;;;245    
;;;246      /* Check if the LCD is ILI9320 Controller */
;;;247      if(lcdid == 0x9320)
;;;248      {
;;;249        /* Start Initial Sequence ------------------------------------------------*/
;;;250        LCD_WriteReg(LCD_REG_229,0x8000); /* Set the internal vcore voltage */
000016  f44f4100          MOV      r1,#0x8000
00001a  20e5              MOVS     r0,#0xe5
00001c  f7fffffe          BL       LCD_WriteReg
;;;251        LCD_WriteReg(LCD_REG_0,  0x0001); /* Start internal OSC. */
000020  2101              MOVS     r1,#1
000022  2000              MOVS     r0,#0
000024  f7fffffe          BL       LCD_WriteReg
;;;252        LCD_WriteReg(LCD_REG_1,  0x0100); /* set SS and SM bit */
000028  f44f7180          MOV      r1,#0x100
00002c  2001              MOVS     r0,#1
00002e  f7fffffe          BL       LCD_WriteReg
;;;253        LCD_WriteReg(LCD_REG_2,  0x0700); /* set 1 line inversion */
000032  f44f61e0          MOV      r1,#0x700
000036  2002              MOVS     r0,#2
000038  f7fffffe          BL       LCD_WriteReg
;;;254        LCD_WriteReg(LCD_REG_3,  0x1030); /* set GRAM write direction and BGR=1. */
00003c  f2410130          MOV      r1,#0x1030
000040  2003              MOVS     r0,#3
000042  f7fffffe          BL       LCD_WriteReg
;;;255        LCD_WriteReg(LCD_REG_4,  0x0000); /* Resize register */
000046  2100              MOVS     r1,#0
000048  2004              MOVS     r0,#4
00004a  f7fffffe          BL       LCD_WriteReg
;;;256        LCD_WriteReg(LCD_REG_8,  0x0202); /* set the back porch and front porch */
00004e  f2402102          MOV      r1,#0x202
000052  2008              MOVS     r0,#8
000054  f7fffffe          BL       LCD_WriteReg
;;;257        LCD_WriteReg(LCD_REG_9,  0x0000); /* set non-display area refresh cycle ISC[3:0] */
000058  2100              MOVS     r1,#0
00005a  2009              MOVS     r0,#9
00005c  f7fffffe          BL       LCD_WriteReg
;;;258        LCD_WriteReg(LCD_REG_10, 0x0000); /* FMARK function */
000060  2100              MOVS     r1,#0
000062  200a              MOVS     r0,#0xa
000064  f7fffffe          BL       LCD_WriteReg
;;;259        LCD_WriteReg(LCD_REG_12, 0x0000); /* RGB interface setting */
000068  2100              MOVS     r1,#0
00006a  200c              MOVS     r0,#0xc
00006c  f7fffffe          BL       LCD_WriteReg
;;;260        LCD_WriteReg(LCD_REG_13, 0x0000); /* Frame marker Position */
000070  2100              MOVS     r1,#0
000072  200d              MOVS     r0,#0xd
000074  f7fffffe          BL       LCD_WriteReg
;;;261        LCD_WriteReg(LCD_REG_15, 0x0000); /* RGB interface polarity */
000078  2100              MOVS     r1,#0
00007a  200f              MOVS     r0,#0xf
00007c  f7fffffe          BL       LCD_WriteReg
;;;262    
;;;263        /* Power On sequence -----------------------------------------------------*/
;;;264        LCD_WriteReg(LCD_REG_16, 0x0000); /* SAP, BT[3:0], AP, DSTB, SLP, STB */
000080  2100              MOVS     r1,#0
000082  2010              MOVS     r0,#0x10
000084  f7fffffe          BL       LCD_WriteReg
;;;265        LCD_WriteReg(LCD_REG_17, 0x0000); /* DC1[2:0], DC0[2:0], VC[2:0] */
000088  2100              MOVS     r1,#0
00008a  2011              MOVS     r0,#0x11
00008c  f7fffffe          BL       LCD_WriteReg
;;;266        LCD_WriteReg(LCD_REG_18, 0x0000); /* VREG1OUT voltage */
000090  2100              MOVS     r1,#0
000092  2012              MOVS     r0,#0x12
000094  f7fffffe          BL       LCD_WriteReg
;;;267        LCD_WriteReg(LCD_REG_19, 0x0000); /* VDV[4:0] for VCOM amplitude */
000098  2100              MOVS     r1,#0
00009a  2013              MOVS     r0,#0x13
00009c  f7fffffe          BL       LCD_WriteReg
;;;268        _delay_(20);                 /* Dis-charge capacitor power voltage (200ms) */
0000a0  2014              MOVS     r0,#0x14
0000a2  f7fffffe          BL       delay
;;;269        LCD_WriteReg(LCD_REG_16, 0x17B0); /* SAP, BT[3:0], AP, DSTB, SLP, STB */
0000a6  f24171b0          MOV      r1,#0x17b0
0000aa  2010              MOVS     r0,#0x10
0000ac  f7fffffe          BL       LCD_WriteReg
;;;270        LCD_WriteReg(LCD_REG_17, 0x0137); /* DC1[2:0], DC0[2:0], VC[2:0] */
0000b0  f2401137          MOV      r1,#0x137
0000b4  2011              MOVS     r0,#0x11
0000b6  f7fffffe          BL       LCD_WriteReg
;;;271        _delay_(5);                  /* Delay 50 ms */
0000ba  2005              MOVS     r0,#5
0000bc  f7fffffe          BL       delay
;;;272        LCD_WriteReg(LCD_REG_18, 0x0139); /* VREG1OUT voltage */
0000c0  f2401139          MOV      r1,#0x139
0000c4  2012              MOVS     r0,#0x12
0000c6  f7fffffe          BL       LCD_WriteReg
;;;273        _delay_(5);                  /* Delay 50 ms */
0000ca  2005              MOVS     r0,#5
0000cc  f7fffffe          BL       delay
;;;274        LCD_WriteReg(LCD_REG_19, 0x1d00); /* VDV[4:0] for VCOM amplitude */
0000d0  f44f51e8          MOV      r1,#0x1d00
0000d4  2013              MOVS     r0,#0x13
0000d6  f7fffffe          BL       LCD_WriteReg
;;;275        LCD_WriteReg(LCD_REG_41, 0x0013); /* VCM[4:0] for VCOMH */
0000da  2113              MOVS     r1,#0x13
0000dc  2029              MOVS     r0,#0x29
0000de  f7fffffe          BL       LCD_WriteReg
;;;276        _delay_(5);                  /* Delay 50 ms */
0000e2  2005              MOVS     r0,#5
0000e4  f7fffffe          BL       delay
;;;277        LCD_WriteReg(LCD_REG_32, 0x0000); /* GRAM horizontal Address */
0000e8  2100              MOVS     r1,#0
0000ea  2020              MOVS     r0,#0x20
0000ec  f7fffffe          BL       LCD_WriteReg
;;;278        LCD_WriteReg(LCD_REG_33, 0x0000); /* GRAM Vertical Address */
0000f0  2100              MOVS     r1,#0
0000f2  2021              MOVS     r0,#0x21
0000f4  f7fffffe          BL       LCD_WriteReg
;;;279    
;;;280        /* Adjust the Gamma Curve ------------------------------------------------*/
;;;281        LCD_WriteReg(LCD_REG_48, 0x0006);
0000f8  2106              MOVS     r1,#6
0000fa  2030              MOVS     r0,#0x30
0000fc  f7fffffe          BL       LCD_WriteReg
;;;282        LCD_WriteReg(LCD_REG_49, 0x0101);
000100  f2401101          MOV      r1,#0x101
000104  2031              MOVS     r0,#0x31
000106  f7fffffe          BL       LCD_WriteReg
;;;283        LCD_WriteReg(LCD_REG_50, 0x0003);
00010a  2103              MOVS     r1,#3
00010c  2032              MOVS     r0,#0x32
00010e  f7fffffe          BL       LCD_WriteReg
;;;284        LCD_WriteReg(LCD_REG_53, 0x0106);
000112  f44f7183          MOV      r1,#0x106
000116  2035              MOVS     r0,#0x35
000118  f7fffffe          BL       LCD_WriteReg
;;;285        LCD_WriteReg(LCD_REG_54, 0x0b02);
00011c  f6403102          MOV      r1,#0xb02
000120  2036              MOVS     r0,#0x36
000122  f7fffffe          BL       LCD_WriteReg
;;;286        LCD_WriteReg(LCD_REG_55, 0x0302);
000126  f2403102          MOV      r1,#0x302
00012a  2037              MOVS     r0,#0x37
00012c  f7fffffe          BL       LCD_WriteReg
;;;287        LCD_WriteReg(LCD_REG_56, 0x0707);
000130  f2407107          MOV      r1,#0x707
000134  2038              MOVS     r0,#0x38
000136  f7fffffe          BL       LCD_WriteReg
;;;288        LCD_WriteReg(LCD_REG_57, 0x0007);
00013a  2107              MOVS     r1,#7
00013c  2039              MOVS     r0,#0x39
00013e  f7fffffe          BL       LCD_WriteReg
;;;289        LCD_WriteReg(LCD_REG_60, 0x0600);
000142  f44f61c0          MOV      r1,#0x600
000146  203c              MOVS     r0,#0x3c
000148  f7fffffe          BL       LCD_WriteReg
;;;290        LCD_WriteReg(LCD_REG_61, 0x020b);
00014c  f240210b          MOV      r1,#0x20b
000150  203d              MOVS     r0,#0x3d
000152  f7fffffe          BL       LCD_WriteReg
;;;291      
;;;292        /* Set GRAM area ---------------------------------------------------------*/
;;;293        LCD_WriteReg(LCD_REG_80, 0x0000); /* Horizontal GRAM Start Address */
000156  2100              MOVS     r1,#0
000158  2050              MOVS     r0,#0x50
00015a  f7fffffe          BL       LCD_WriteReg
;;;294        LCD_WriteReg(LCD_REG_81, 0x00EF); /* Horizontal GRAM End Address */
00015e  21ef              MOVS     r1,#0xef
000160  2051              MOVS     r0,#0x51
000162  f7fffffe          BL       LCD_WriteReg
;;;295        LCD_WriteReg(LCD_REG_82, 0x0000); /* Vertical GRAM Start Address */
000166  2100              MOVS     r1,#0
000168  2052              MOVS     r0,#0x52
00016a  f7fffffe          BL       LCD_WriteReg
;;;296        LCD_WriteReg(LCD_REG_83, 0x013F); /* Vertical GRAM End Address */
00016e  f240113f          MOV      r1,#0x13f
000172  2053              MOVS     r0,#0x53
000174  f7fffffe          BL       LCD_WriteReg
;;;297        LCD_WriteReg(LCD_REG_96,  0x2700); /* Gate Scan Line */
000178  f44f511c          MOV      r1,#0x2700
00017c  2060              MOVS     r0,#0x60
00017e  f7fffffe          BL       LCD_WriteReg
;;;298        LCD_WriteReg(LCD_REG_97,  0x0001); /* NDL,VLE, REV */
000182  2101              MOVS     r1,#1
000184  2061              MOVS     r0,#0x61
000186  f7fffffe          BL       LCD_WriteReg
;;;299        LCD_WriteReg(LCD_REG_106, 0x0000); /* set scrolling line */
00018a  2100              MOVS     r1,#0
00018c  206a              MOVS     r0,#0x6a
00018e  f7fffffe          BL       LCD_WriteReg
;;;300    
;;;301        /* Partial Display Control -----------------------------------------------*/
;;;302        LCD_WriteReg(LCD_REG_128, 0x0000);
000192  2100              MOVS     r1,#0
000194  2080              MOVS     r0,#0x80
000196  f7fffffe          BL       LCD_WriteReg
;;;303        LCD_WriteReg(LCD_REG_129, 0x0000);
00019a  2100              MOVS     r1,#0
00019c  2081              MOVS     r0,#0x81
00019e  f7fffffe          BL       LCD_WriteReg
;;;304        LCD_WriteReg(LCD_REG_130, 0x0000);
0001a2  2100              MOVS     r1,#0
0001a4  2082              MOVS     r0,#0x82
0001a6  f7fffffe          BL       LCD_WriteReg
;;;305        LCD_WriteReg(LCD_REG_131, 0x0000);
0001aa  2100              MOVS     r1,#0
0001ac  2083              MOVS     r0,#0x83
0001ae  f7fffffe          BL       LCD_WriteReg
;;;306        LCD_WriteReg(LCD_REG_132, 0x0000);
0001b2  2100              MOVS     r1,#0
0001b4  2084              MOVS     r0,#0x84
0001b6  f7fffffe          BL       LCD_WriteReg
;;;307        LCD_WriteReg(LCD_REG_133, 0x0000);
0001ba  2100              MOVS     r1,#0
0001bc  2085              MOVS     r0,#0x85
0001be  f7fffffe          BL       LCD_WriteReg
;;;308    
;;;309        /* Panel Control ---------------------------------------------------------*/
;;;310        LCD_WriteReg(LCD_REG_144, 0x0010);
0001c2  2110              MOVS     r1,#0x10
0001c4  2090              MOVS     r0,#0x90
0001c6  f7fffffe          BL       LCD_WriteReg
;;;311        LCD_WriteReg(LCD_REG_146, 0x0000);
0001ca  2100              MOVS     r1,#0
0001cc  2092              MOVS     r0,#0x92
0001ce  f7fffffe          BL       LCD_WriteReg
;;;312        LCD_WriteReg(LCD_REG_147, 0x0003);
0001d2  2103              MOVS     r1,#3
0001d4  2093              MOVS     r0,#0x93
0001d6  f7fffffe          BL       LCD_WriteReg
;;;313        LCD_WriteReg(LCD_REG_149, 0x0110);
0001da  f44f7188          MOV      r1,#0x110
0001de  2095              MOVS     r0,#0x95
0001e0  f7fffffe          BL       LCD_WriteReg
;;;314        LCD_WriteReg(LCD_REG_151, 0x0000);
0001e4  2100              MOVS     r1,#0
0001e6  2097              MOVS     r0,#0x97
0001e8  f7fffffe          BL       LCD_WriteReg
;;;315        LCD_WriteReg(LCD_REG_152, 0x0000);
0001ec  2100              MOVS     r1,#0
0001ee  2098              MOVS     r0,#0x98
0001f0  f7fffffe          BL       LCD_WriteReg
;;;316    
;;;317        /* Set GRAM write direction and BGR = 1 */
;;;318        /* I/D=01 (Horizontal : increment, Vertical : decrement) */
;;;319        /* AM=1 (address is updated in vertical writing direction) */
;;;320        LCD_WriteReg(LCD_REG_3, 0x1018);
0001f4  f2410118          MOV      r1,#0x1018
0001f8  2003              MOVS     r0,#3
0001fa  f7fffffe          BL       LCD_WriteReg
;;;321    
;;;322        LCD_WriteReg(LCD_REG_7, 0x0173); /* 262K color and display ON */  
0001fe  f2401173          MOV      r1,#0x173
000202  2007              MOVS     r0,#7
000204  f7fffffe          BL       LCD_WriteReg
;;;323      }
;;;324      else if(lcdid == 0x9325) /* Check if the LCD is ILI9325 Controller */
;;;325      {
;;;326        /* Start Initial Sequence ------------------------------------------------*/
;;;327        LCD_WriteReg(LCD_REG_0, 0x0001); /* Start internal OSC. */
;;;328        LCD_WriteReg(LCD_REG_1, 0x0100); /* Set SS and SM bit */
;;;329        LCD_WriteReg(LCD_REG_2, 0x0700); /* Set 1 line inversion */
;;;330        LCD_WriteReg(LCD_REG_3, 0x1018); /* Set GRAM write direction and BGR=1. */
;;;331        LCD_WriteReg(LCD_REG_4, 0x0000); /* Resize register */
;;;332        LCD_WriteReg(LCD_REG_8, 0x0202); /* Set the back porch and front porch */
;;;333        LCD_WriteReg(LCD_REG_9, 0x0000); /* Set non-display area refresh cycle ISC[3:0] */
;;;334        LCD_WriteReg(LCD_REG_10, 0x0000); /* FMARK function */
;;;335        LCD_WriteReg(LCD_REG_12, 0x0000); /* RGB interface setting */
;;;336        LCD_WriteReg(LCD_REG_13, 0x0000); /* Frame marker Position */
;;;337        LCD_WriteReg(LCD_REG_15, 0x0000); /* RGB interface polarity */
;;;338    
;;;339        /* Power On sequence -----------------------------------------------------*/
;;;340        LCD_WriteReg(LCD_REG_16, 0x0000); /* SAP, BT[3:0], AP, DSTB, SLP, STB */
;;;341        LCD_WriteReg(LCD_REG_17, 0x0000); /* DC1[2:0], DC0[2:0], VC[2:0] */
;;;342        LCD_WriteReg(LCD_REG_18, 0x0000); /* VREG1OUT voltage */
;;;343        LCD_WriteReg(LCD_REG_19, 0x0000); /* VDV[4:0] for VCOM amplitude */
;;;344        _delay_(20);                      /* Dis-charge capacitor power voltage (200ms) */
;;;345        LCD_WriteReg(LCD_REG_16, 0x17B0); /* SAP, BT[3:0], AP, DSTB, SLP, STB */
;;;346        LCD_WriteReg(LCD_REG_17, 0x0137); /* DC1[2:0], DC0[2:0], VC[2:0] */
;;;347        _delay_(5);                       /* Delay 50 ms */
;;;348        LCD_WriteReg(LCD_REG_18, 0x0139); /* VREG1OUT voltage */
;;;349        _delay_(5);                       /* Delay 50 ms */
;;;350        LCD_WriteReg(LCD_REG_19, 0x1d00); /* VDV[4:0] for VCOM amplitude */
;;;351        LCD_WriteReg(LCD_REG_41, 0x0013); /* VCM[4:0] for VCOMH */
;;;352        _delay_(5);                       /* Delay 50 ms */
;;;353        LCD_WriteReg(LCD_REG_32, 0x0000); /* GRAM horizontal Address */
;;;354        LCD_WriteReg(LCD_REG_33, 0x0000); /* GRAM Vertical Address */
;;;355    
;;;356        /* Adjust the Gamma Curve (ILI9325)---------------------------------------*/
;;;357        LCD_WriteReg(LCD_REG_48, 0x0007);
;;;358        LCD_WriteReg(LCD_REG_49, 0x0302);
;;;359        LCD_WriteReg(LCD_REG_50, 0x0105);
;;;360        LCD_WriteReg(LCD_REG_53, 0x0206);
;;;361        LCD_WriteReg(LCD_REG_54, 0x0808);
;;;362        LCD_WriteReg(LCD_REG_55, 0x0206);
;;;363        LCD_WriteReg(LCD_REG_56, 0x0504);
;;;364        LCD_WriteReg(LCD_REG_57, 0x0007);
;;;365        LCD_WriteReg(LCD_REG_60, 0x0105);
;;;366        LCD_WriteReg(LCD_REG_61, 0x0808);
;;;367    
;;;368        /* Set GRAM area ---------------------------------------------------------*/
;;;369        LCD_WriteReg(LCD_REG_80, 0x0000); /* Horizontal GRAM Start Address */
;;;370        LCD_WriteReg(LCD_REG_81, 0x00EF); /* Horizontal GRAM End Address */
;;;371        LCD_WriteReg(LCD_REG_82, 0x0000); /* Vertical GRAM Start Address */
;;;372        LCD_WriteReg(LCD_REG_83, 0x013F); /* Vertical GRAM End Address */
;;;373    
;;;374        LCD_WriteReg(LCD_REG_96,  0xA700); /* Gate Scan Line(GS=1, scan direction is G320~G1) */
;;;375        LCD_WriteReg(LCD_REG_97,  0x0001); /* NDL,VLE, REV */
;;;376        LCD_WriteReg(LCD_REG_106, 0x0000); /* set scrolling line */
;;;377    
;;;378        /* Partial Display Control -----------------------------------------------*/
;;;379        LCD_WriteReg(LCD_REG_128, 0x0000);
;;;380        LCD_WriteReg(LCD_REG_129, 0x0000);
;;;381        LCD_WriteReg(LCD_REG_130, 0x0000);
;;;382        LCD_WriteReg(LCD_REG_131, 0x0000);
;;;383        LCD_WriteReg(LCD_REG_132, 0x0000);
;;;384        LCD_WriteReg(LCD_REG_133, 0x0000);
;;;385    
;;;386        /* Panel Control ---------------------------------------------------------*/
;;;387        LCD_WriteReg(LCD_REG_144, 0x0010);
;;;388        LCD_WriteReg(LCD_REG_146, 0x0000);
;;;389        LCD_WriteReg(LCD_REG_147, 0x0003);
;;;390        LCD_WriteReg(LCD_REG_149, 0x0110);
;;;391        LCD_WriteReg(LCD_REG_151, 0x0000);
;;;392        LCD_WriteReg(LCD_REG_152, 0x0000);
;;;393    
;;;394        /* set GRAM write direction and BGR = 1 */
;;;395        /* I/D=00 (Horizontal : increment, Vertical : decrement) */
;;;396        /* AM=1 (address is updated in vertical writing direction) */
;;;397        LCD_WriteReg(LCD_REG_3, 0x1018);
;;;398    
;;;399        LCD_WriteReg(LCD_REG_7, 0x0133); /* 262K color and display ON */ 
;;;400      }
;;;401      LCD_SetFont(&LCD_DEFAULT_FONT);
000208  4802              LDR      r0,|L41.532|
00020a  f1a00108          SUB      r1,r0,#8
00020e  6048              STR      r0,[r1,#4]  ; LCD_Currentfonts
;;;402    }
000210  bd10              POP      {r4,pc}
;;;403    
                          ENDP

000212  0000              DCW      0x0000
                  |L41.532|
                          DCD      ||.data||+0x8

                          AREA ||i.delay||, CODE, READONLY, ALIGN=2

                  delay PROC
;;;1425     */
;;;1426   static void delay(__IO uint32_t nCount)
000000  4903              LDR      r1,|L42.16|
;;;1427   {
;;;1428     __IO uint32_t index = 0; 
;;;1429     for(index = (100000 * nCount); index != 0; index--)
000002  4348              MULS     r0,r1,r0
000004  e000              B        |L42.8|
                  |L42.6|
000006  1e40              SUBS     r0,r0,#1
                  |L42.8|
000008  2800              CMP      r0,#0
00000a  d1fc              BNE      |L42.6|
;;;1430     {
;;;1431     }
;;;1432   }
00000c  4770              BX       lr
;;;1433   #endif /* USE_Delay*/
                          ENDP

00000e  0000              DCW      0x0000
                  |L42.16|
                          DCD      0x000186a0

                          AREA ||.constdata||, DATA, READONLY, ALIGN=1

                  ASCII16x24_Table
000000  00000000          DCW      0x0000,0x0000
000004  00000000          DCW      0x0000,0x0000
000008  00000000          DCW      0x0000,0x0000
00000c  00000000          DCW      0x0000,0x0000
000010  00000000          DCW      0x0000,0x0000
000014  00000000          DCW      0x0000,0x0000
000018  00000000          DCW      0x0000,0x0000
00001c  00000000          DCW      0x0000,0x0000
000020  00000000          DCW      0x0000,0x0000
000024  00000000          DCW      0x0000,0x0000
000028  00000000          DCW      0x0000,0x0000
00002c  00000000          DCW      0x0000,0x0000
000030  00000180          DCW      0x0000,0x0180
000034  01800180          DCW      0x0180,0x0180
000038  01800180          DCW      0x0180,0x0180
00003c  01800180          DCW      0x0180,0x0180
000040  01800180          DCW      0x0180,0x0180
000044  01800180          DCW      0x0180,0x0180
000048  01800180          DCW      0x0180,0x0180
00004c  00000000          DCW      0x0000,0x0000
000050  01800180          DCW      0x0180,0x0180
000054  00000000          DCW      0x0000,0x0000
000058  00000000          DCW      0x0000,0x0000
00005c  00000000          DCW      0x0000,0x0000
000060  00000000          DCW      0x0000,0x0000
000064  00cc00cc          DCW      0x00cc,0x00cc
000068  00cc00cc          DCW      0x00cc,0x00cc
00006c  00cc00cc          DCW      0x00cc,0x00cc
000070  00000000          DCW      0x0000,0x0000
000074  00000000          DCW      0x0000,0x0000
000078  00000000          DCW      0x0000,0x0000
00007c  00000000          DCW      0x0000,0x0000
000080  00000000          DCW      0x0000,0x0000
000084  00000000          DCW      0x0000,0x0000
000088  00000000          DCW      0x0000,0x0000
00008c  00000000          DCW      0x0000,0x0000
000090  00000000          DCW      0x0000,0x0000
000094  00000000          DCW      0x0000,0x0000
000098  00000000          DCW      0x0000,0x0000
00009c  0c600c60          DCW      0x0c60,0x0c60
0000a0  0c600630          DCW      0x0c60,0x0630
0000a4  06301ffe          DCW      0x0630,0x1ffe
0000a8  1ffe0630          DCW      0x1ffe,0x0630
0000ac  07380318          DCW      0x0738,0x0318
0000b0  1ffe1ffe          DCW      0x1ffe,0x1ffe
0000b4  03180318          DCW      0x0318,0x0318
0000b8  018c018c          DCW      0x018c,0x018c
0000bc  018c0000          DCW      0x018c,0x0000
0000c0  00000080          DCW      0x0000,0x0080
0000c4  03e00ff8          DCW      0x03e0,0x0ff8
0000c8  0e9c1c8c          DCW      0x0e9c,0x1c8c
0000cc  188c008c          DCW      0x188c,0x008c
0000d0  009801f8          DCW      0x0098,0x01f8
0000d4  07e00e80          DCW      0x07e0,0x0e80
0000d8  1c80188c          DCW      0x1c80,0x188c
0000dc  188c189c          DCW      0x188c,0x189c
0000e0  0cb80ff0          DCW      0x0cb8,0x0ff0
0000e4  03e00080          DCW      0x03e0,0x0080
0000e8  00800000          DCW      0x0080,0x0000
0000ec  00000000          DCW      0x0000,0x0000
0000f0  00000000          DCW      0x0000,0x0000
0000f4  0000180e          DCW      0x0000,0x180e
0000f8  0c1b0c11          DCW      0x0c1b,0x0c11
0000fc  06110611          DCW      0x0611,0x0611
000100  03110311          DCW      0x0311,0x0311
000104  019b018e          DCW      0x019b,0x018e
000108  38c06cc0          DCW      0x38c0,0x6cc0
00010c  44604460          DCW      0x4460,0x4460
000110  44304430          DCW      0x4430,0x4430
000114  44186c18          DCW      0x4418,0x6c18
000118  380c0000          DCW      0x380c,0x0000
00011c  00000000          DCW      0x0000,0x0000
000120  000001e0          DCW      0x0000,0x01e0
000124  03f00738          DCW      0x03f0,0x0738
000128  06180618          DCW      0x0618,0x0618
00012c  033001f0          DCW      0x0330,0x01f0
000130  00f000f8          DCW      0x00f0,0x00f8
000134  319c330e          DCW      0x319c,0x330e
000138  1e061c06          DCW      0x1e06,0x1c06
00013c  1c063f06          DCW      0x1c06,0x3f06
000140  73fc21f0          DCW      0x73fc,0x21f0
000144  00000000          DCW      0x0000,0x0000
000148  00000000          DCW      0x0000,0x0000
00014c  00000000          DCW      0x0000,0x0000
000150  00000000          DCW      0x0000,0x0000
000154  000c000c          DCW      0x000c,0x000c
000158  000c000c          DCW      0x000c,0x000c
00015c  000c000c          DCW      0x000c,0x000c
000160  00000000          DCW      0x0000,0x0000
000164  00000000          DCW      0x0000,0x0000
000168  00000000          DCW      0x0000,0x0000
00016c  00000000          DCW      0x0000,0x0000
000170  00000000          DCW      0x0000,0x0000
000174  00000000          DCW      0x0000,0x0000
000178  00000000          DCW      0x0000,0x0000
00017c  00000000          DCW      0x0000,0x0000
000180  00000200          DCW      0x0000,0x0200
000184  03000180          DCW      0x0300,0x0180
000188  00c000c0          DCW      0x00c0,0x00c0
00018c  00600060          DCW      0x0060,0x0060
000190  00300030          DCW      0x0030,0x0030
000194  00300030          DCW      0x0030,0x0030
000198  00300030          DCW      0x0030,0x0030
00019c  00300030          DCW      0x0030,0x0030
0001a0  00600060          DCW      0x0060,0x0060
0001a4  00c000c0          DCW      0x00c0,0x00c0
0001a8  01800300          DCW      0x0180,0x0300
0001ac  02000000          DCW      0x0200,0x0000
0001b0  00000020          DCW      0x0000,0x0020
0001b4  006000c0          DCW      0x0060,0x00c0
0001b8  01800180          DCW      0x0180,0x0180
0001bc  03000300          DCW      0x0300,0x0300
0001c0  06000600          DCW      0x0600,0x0600
0001c4  06000600          DCW      0x0600,0x0600
0001c8  06000600          DCW      0x0600,0x0600
0001cc  06000600          DCW      0x0600,0x0600
0001d0  03000300          DCW      0x0300,0x0300
0001d4  01800180          DCW      0x0180,0x0180
0001d8  00c00060          DCW      0x00c0,0x0060
0001dc  00200000          DCW      0x0020,0x0000
0001e0  00000000          DCW      0x0000,0x0000
0001e4  00000000          DCW      0x0000,0x0000
0001e8  00000000          DCW      0x0000,0x0000
0001ec  00c000c0          DCW      0x00c0,0x00c0
0001f0  06d807f8          DCW      0x06d8,0x07f8
0001f4  01e00330          DCW      0x01e0,0x0330
0001f8  07380000          DCW      0x0738,0x0000
0001fc  00000000          DCW      0x0000,0x0000
000200  00000000          DCW      0x0000,0x0000
000204  00000000          DCW      0x0000,0x0000
000208  00000000          DCW      0x0000,0x0000
00020c  00000000          DCW      0x0000,0x0000
000210  00000000          DCW      0x0000,0x0000
000214  00000000          DCW      0x0000,0x0000
000218  00000000          DCW      0x0000,0x0000
00021c  01800180          DCW      0x0180,0x0180
000220  01800180          DCW      0x0180,0x0180
000224  01803ffc          DCW      0x0180,0x3ffc
000228  3ffc0180          DCW      0x3ffc,0x0180
00022c  01800180          DCW      0x0180,0x0180
000230  01800180          DCW      0x0180,0x0180
000234  00000000          DCW      0x0000,0x0000
000238  00000000          DCW      0x0000,0x0000
00023c  00000000          DCW      0x0000,0x0000
000240  00000000          DCW      0x0000,0x0000
000244  00000000          DCW      0x0000,0x0000
000248  00000000          DCW      0x0000,0x0000
00024c  00000000          DCW      0x0000,0x0000
000250  00000000          DCW      0x0000,0x0000
000254  00000000          DCW      0x0000,0x0000
000258  00000000          DCW      0x0000,0x0000
00025c  00000000          DCW      0x0000,0x0000
000260  00000180          DCW      0x0000,0x0180
000264  01800100          DCW      0x0180,0x0100
000268  01000080          DCW      0x0100,0x0080
00026c  00000000          DCW      0x0000,0x0000
000270  00000000          DCW      0x0000,0x0000
000274  00000000          DCW      0x0000,0x0000
000278  00000000          DCW      0x0000,0x0000
00027c  00000000          DCW      0x0000,0x0000
000280  00000000          DCW      0x0000,0x0000
000284  00000000          DCW      0x0000,0x0000
000288  07e007e0          DCW      0x07e0,0x07e0
00028c  00000000          DCW      0x0000,0x0000
000290  00000000          DCW      0x0000,0x0000
000294  00000000          DCW      0x0000,0x0000
000298  00000000          DCW      0x0000,0x0000
00029c  00000000          DCW      0x0000,0x0000
0002a0  00000000          DCW      0x0000,0x0000
0002a4  00000000          DCW      0x0000,0x0000
0002a8  00000000          DCW      0x0000,0x0000
0002ac  00000000          DCW      0x0000,0x0000
0002b0  00000000          DCW      0x0000,0x0000
0002b4  00000000          DCW      0x0000,0x0000
0002b8  00000000          DCW      0x0000,0x0000
0002bc  00000000          DCW      0x0000,0x0000
0002c0  000000c0          DCW      0x0000,0x00c0
0002c4  00c00000          DCW      0x00c0,0x0000
0002c8  00000000          DCW      0x0000,0x0000
0002cc  00000000          DCW      0x0000,0x0000
0002d0  00000c00          DCW      0x0000,0x0c00
0002d4  0c000600          DCW      0x0c00,0x0600
0002d8  06000600          DCW      0x0600,0x0600
0002dc  03000300          DCW      0x0300,0x0300
0002e0  03000380          DCW      0x0300,0x0380
0002e4  01800180          DCW      0x0180,0x0180
0002e8  018000c0          DCW      0x0180,0x00c0
0002ec  00c000c0          DCW      0x00c0,0x00c0
0002f0  00600060          DCW      0x0060,0x0060
0002f4  00000000          DCW      0x0000,0x0000
0002f8  00000000          DCW      0x0000,0x0000
0002fc  00000000          DCW      0x0000,0x0000
000300  000003e0          DCW      0x0000,0x03e0
000304  07f00e38          DCW      0x07f0,0x0e38
000308  0c18180c          DCW      0x0c18,0x180c
00030c  180c180c          DCW      0x180c,0x180c
000310  180c180c          DCW      0x180c,0x180c
000314  180c180c          DCW      0x180c,0x180c
000318  180c180c          DCW      0x180c,0x180c
00031c  0c180e38          DCW      0x0c18,0x0e38
000320  07f003e0          DCW      0x07f0,0x03e0
000324  00000000          DCW      0x0000,0x0000
000328  00000000          DCW      0x0000,0x0000
00032c  00000000          DCW      0x0000,0x0000
000330  00000100          DCW      0x0000,0x0100
000334  018001c0          DCW      0x0180,0x01c0
000338  01f00198          DCW      0x01f0,0x0198
00033c  01880180          DCW      0x0188,0x0180
000340  01800180          DCW      0x0180,0x0180
000344  01800180          DCW      0x0180,0x0180
000348  01800180          DCW      0x0180,0x0180
00034c  01800180          DCW      0x0180,0x0180
000350  01800180          DCW      0x0180,0x0180
000354  00000000          DCW      0x0000,0x0000
000358  00000000          DCW      0x0000,0x0000
00035c  00000000          DCW      0x0000,0x0000
000360  000003e0          DCW      0x0000,0x03e0
000364  0ff80c18          DCW      0x0ff8,0x0c18
000368  180c180c          DCW      0x180c,0x180c
00036c  18001800          DCW      0x1800,0x1800
000370  0c000600          DCW      0x0c00,0x0600
000374  03000180          DCW      0x0300,0x0180
000378  00c00060          DCW      0x00c0,0x0060
00037c  00300018          DCW      0x0030,0x0018
000380  1ffc1ffc          DCW      0x1ffc,0x1ffc
000384  00000000          DCW      0x0000,0x0000
000388  00000000          DCW      0x0000,0x0000
00038c  00000000          DCW      0x0000,0x0000
000390  000001e0          DCW      0x0000,0x01e0
000394  07f80e18          DCW      0x07f8,0x0e18
000398  0c0c0c0c          DCW      0x0c0c,0x0c0c
00039c  0c000600          DCW      0x0c00,0x0600
0003a0  03c007c0          DCW      0x03c0,0x07c0
0003a4  0c001800          DCW      0x0c00,0x1800
0003a8  1800180c          DCW      0x1800,0x180c
0003ac  180c0c18          DCW      0x180c,0x0c18
0003b0  07f803e0          DCW      0x07f8,0x03e0
0003b4  00000000          DCW      0x0000,0x0000
0003b8  00000000          DCW      0x0000,0x0000
0003bc  00000000          DCW      0x0000,0x0000
0003c0  00000c00          DCW      0x0000,0x0c00
0003c4  0e000f00          DCW      0x0e00,0x0f00
0003c8  0f000d80          DCW      0x0f00,0x0d80
0003cc  0cc00c60          DCW      0x0cc0,0x0c60
0003d0  0c600c30          DCW      0x0c60,0x0c30
0003d4  0c180c0c          DCW      0x0c18,0x0c0c
0003d8  3ffc3ffc          DCW      0x3ffc,0x3ffc
0003dc  0c000c00          DCW      0x0c00,0x0c00
0003e0  0c000c00          DCW      0x0c00,0x0c00
0003e4  00000000          DCW      0x0000,0x0000
0003e8  00000000          DCW      0x0000,0x0000
0003ec  00000000          DCW      0x0000,0x0000
0003f0  00000ff8          DCW      0x0000,0x0ff8
0003f4  0ff80018          DCW      0x0ff8,0x0018
0003f8  0018000c          DCW      0x0018,0x000c
0003fc  03ec07fc          DCW      0x03ec,0x07fc
000400  0e1c1c00          DCW      0x0e1c,0x1c00
000404  18001800          DCW      0x1800,0x1800
000408  1800180c          DCW      0x1800,0x180c
00040c  0c1c0e18          DCW      0x0c1c,0x0e18
000410  07f803e0          DCW      0x07f8,0x03e0
000414  00000000          DCW      0x0000,0x0000
000418  00000000          DCW      0x0000,0x0000
00041c  00000000          DCW      0x0000,0x0000
000420  000007c0          DCW      0x0000,0x07c0
000424  0ff01c38          DCW      0x0ff0,0x1c38
000428  18180018          DCW      0x1818,0x0018
00042c  000c03cc          DCW      0x000c,0x03cc
000430  0fec0e3c          DCW      0x0fec,0x0e3c
000434  1c1c180c          DCW      0x1c1c,0x180c
000438  180c180c          DCW      0x180c,0x180c
00043c  1c180e38          DCW      0x1c18,0x0e38
000440  07f003e0          DCW      0x07f0,0x03e0
000444  00000000          DCW      0x0000,0x0000
000448  00000000          DCW      0x0000,0x0000
00044c  00000000          DCW      0x0000,0x0000
000450  00001ffc          DCW      0x0000,0x1ffc
000454  1ffc0c00          DCW      0x1ffc,0x0c00
000458  06000600          DCW      0x0600,0x0600
00045c  03000380          DCW      0x0300,0x0380
000460  018001c0          DCW      0x0180,0x01c0
000464  00c000e0          DCW      0x00c0,0x00e0
000468  00600060          DCW      0x0060,0x0060
00046c  00700030          DCW      0x0070,0x0030
000470  00300030          DCW      0x0030,0x0030
000474  00000000          DCW      0x0000,0x0000
000478  00000000          DCW      0x0000,0x0000
00047c  00000000          DCW      0x0000,0x0000
000480  000003e0          DCW      0x0000,0x03e0
000484  07f00e38          DCW      0x07f0,0x0e38
000488  0c180c18          DCW      0x0c18,0x0c18
00048c  0c180638          DCW      0x0c18,0x0638
000490  07f007f0          DCW      0x07f0,0x07f0
000494  0c18180c          DCW      0x0c18,0x180c
000498  180c180c          DCW      0x180c,0x180c
00049c  180c0c38          DCW      0x180c,0x0c38
0004a0  0ff803e0          DCW      0x0ff8,0x03e0
0004a4  00000000          DCW      0x0000,0x0000
0004a8  00000000          DCW      0x0000,0x0000
0004ac  00000000          DCW      0x0000,0x0000
0004b0  000003e0          DCW      0x0000,0x03e0
0004b4  07f00e38          DCW      0x07f0,0x0e38
0004b8  0c1c180c          DCW      0x0c1c,0x180c
0004bc  180c180c          DCW      0x180c,0x180c
0004c0  1c1c1e38          DCW      0x1c1c,0x1e38
0004c4  1bf819e0          DCW      0x1bf8,0x19e0
0004c8  18000c00          DCW      0x1800,0x0c00
0004cc  0c000e1c          DCW      0x0c00,0x0e1c
0004d0  07f801f0          DCW      0x07f8,0x01f0
0004d4  00000000          DCW      0x0000,0x0000
0004d8  00000000          DCW      0x0000,0x0000
0004dc  00000000          DCW      0x0000,0x0000
0004e0  00000000          DCW      0x0000,0x0000
0004e4  00000000          DCW      0x0000,0x0000
0004e8  00000000          DCW      0x0000,0x0000
0004ec  01800180          DCW      0x0180,0x0180
0004f0  00000000          DCW      0x0000,0x0000
0004f4  00000000          DCW      0x0000,0x0000
0004f8  00000000          DCW      0x0000,0x0000
0004fc  00000000          DCW      0x0000,0x0000
000500  01800180          DCW      0x0180,0x0180
000504  00000000          DCW      0x0000,0x0000
000508  00000000          DCW      0x0000,0x0000
00050c  00000000          DCW      0x0000,0x0000
000510  00000000          DCW      0x0000,0x0000
000514  00000000          DCW      0x0000,0x0000
000518  00000000          DCW      0x0000,0x0000
00051c  01800180          DCW      0x0180,0x0180
000520  00000000          DCW      0x0000,0x0000
000524  00000000          DCW      0x0000,0x0000
000528  00000000          DCW      0x0000,0x0000
00052c  00000000          DCW      0x0000,0x0000
000530  01800180          DCW      0x0180,0x0180
000534  01000100          DCW      0x0100,0x0100
000538  00800000          DCW      0x0080,0x0000
00053c  00000000          DCW      0x0000,0x0000
000540  00000000          DCW      0x0000,0x0000
000544  00000000          DCW      0x0000,0x0000
000548  00000000          DCW      0x0000,0x0000
00054c  00000000          DCW      0x0000,0x0000
000550  10001c00          DCW      0x1000,0x1c00
000554  0f8003e0          DCW      0x0f80,0x03e0
000558  00f80018          DCW      0x00f8,0x0018
00055c  00f803e0          DCW      0x00f8,0x03e0
000560  0f801c00          DCW      0x0f80,0x1c00
000564  10000000          DCW      0x1000,0x0000
000568  00000000          DCW      0x0000,0x0000
00056c  00000000          DCW      0x0000,0x0000
000570  00000000          DCW      0x0000,0x0000
000574  00000000          DCW      0x0000,0x0000
000578  00000000          DCW      0x0000,0x0000
00057c  00000000          DCW      0x0000,0x0000
000580  1ff80000          DCW      0x1ff8,0x0000
000584  00000000          DCW      0x0000,0x0000
000588  1ff80000          DCW      0x1ff8,0x0000
00058c  00000000          DCW      0x0000,0x0000
000590  00000000          DCW      0x0000,0x0000
000594  00000000          DCW      0x0000,0x0000
000598  00000000          DCW      0x0000,0x0000
00059c  00000000          DCW      0x0000,0x0000
0005a0  00000000          DCW      0x0000,0x0000
0005a4  00000000          DCW      0x0000,0x0000
0005a8  00000000          DCW      0x0000,0x0000
0005ac  00000000          DCW      0x0000,0x0000
0005b0  00080038          DCW      0x0008,0x0038
0005b4  01f007c0          DCW      0x01f0,0x07c0
0005b8  1f001800          DCW      0x1f00,0x1800
0005bc  1f0007c0          DCW      0x1f00,0x07c0
0005c0  01f00038          DCW      0x01f0,0x0038
0005c4  00080000          DCW      0x0008,0x0000
0005c8  00000000          DCW      0x0000,0x0000
0005cc  00000000          DCW      0x0000,0x0000
0005d0  000003e0          DCW      0x0000,0x03e0
0005d4  0ff80c18          DCW      0x0ff8,0x0c18
0005d8  180c180c          DCW      0x180c,0x180c
0005dc  18000c00          DCW      0x1800,0x0c00
0005e0  06000300          DCW      0x0600,0x0300
0005e4  018000c0          DCW      0x0180,0x00c0
0005e8  00c000c0          DCW      0x00c0,0x00c0
0005ec  00000000          DCW      0x0000,0x0000
0005f0  00c000c0          DCW      0x00c0,0x00c0
0005f4  00000000          DCW      0x0000,0x0000
0005f8  00000000          DCW      0x0000,0x0000
0005fc  00000000          DCW      0x0000,0x0000
000600  00000000          DCW      0x0000,0x0000
000604  07e01818          DCW      0x07e0,0x1818
000608  200429c2          DCW      0x2004,0x29c2
00060c  4a224411          DCW      0x4a22,0x4411
000610  44094409          DCW      0x4409,0x4409
000614  44092209          DCW      0x4409,0x2209
000618  13110ce2          DCW      0x1311,0x0ce2
00061c  40022004          DCW      0x4002,0x2004
000620  181807e0          DCW      0x1818,0x07e0
000624  00000000          DCW      0x0000,0x0000
000628  00000000          DCW      0x0000,0x0000
00062c  00000000          DCW      0x0000,0x0000
000630  00000380          DCW      0x0000,0x0380
000634  038006c0          DCW      0x0380,0x06c0
000638  06c006c0          DCW      0x06c0,0x06c0
00063c  0c600c60          DCW      0x0c60,0x0c60
000640  18301830          DCW      0x1830,0x1830
000644  18303ff8          DCW      0x1830,0x3ff8
000648  3ff8701c          DCW      0x3ff8,0x701c
00064c  600c600c          DCW      0x600c,0x600c
000650  c006c006          DCW      0xc006,0xc006
000654  00000000          DCW      0x0000,0x0000
000658  00000000          DCW      0x0000,0x0000
00065c  00000000          DCW      0x0000,0x0000
000660  000003fc          DCW      0x0000,0x03fc
000664  0ffc0c0c          DCW      0x0ffc,0x0c0c
000668  180c180c          DCW      0x180c,0x180c
00066c  180c0c0c          DCW      0x180c,0x0c0c
000670  07fc0ffc          DCW      0x07fc,0x0ffc
000674  180c300c          DCW      0x180c,0x300c
000678  300c300c          DCW      0x300c,0x300c
00067c  300c180c          DCW      0x300c,0x180c
000680  1ffc07fc          DCW      0x1ffc,0x07fc
000684  00000000          DCW      0x0000,0x0000
000688  00000000          DCW      0x0000,0x0000
00068c  00000000          DCW      0x0000,0x0000
000690  000007c0          DCW      0x0000,0x07c0
000694  1ff03838          DCW      0x1ff0,0x3838
000698  301c700c          DCW      0x301c,0x700c
00069c  60060006          DCW      0x6006,0x0006
0006a0  00060006          DCW      0x0006,0x0006
0006a4  00060006          DCW      0x0006,0x0006
0006a8  00066006          DCW      0x0006,0x6006
0006ac  700c301c          DCW      0x700c,0x301c
0006b0  1ff007e0          DCW      0x1ff0,0x07e0
0006b4  00000000          DCW      0x0000,0x0000
0006b8  00000000          DCW      0x0000,0x0000
0006bc  00000000          DCW      0x0000,0x0000
0006c0  000003fe          DCW      0x0000,0x03fe
0006c4  0ffe0e06          DCW      0x0ffe,0x0e06
0006c8  18061806          DCW      0x1806,0x1806
0006cc  30063006          DCW      0x3006,0x3006
0006d0  30063006          DCW      0x3006,0x3006
0006d4  30063006          DCW      0x3006,0x3006
0006d8  30061806          DCW      0x3006,0x1806
0006dc  18060e06          DCW      0x1806,0x0e06
0006e0  0ffe03fe          DCW      0x0ffe,0x03fe
0006e4  00000000          DCW      0x0000,0x0000
0006e8  00000000          DCW      0x0000,0x0000
0006ec  00000000          DCW      0x0000,0x0000
0006f0  00003ffc          DCW      0x0000,0x3ffc
0006f4  3ffc000c          DCW      0x3ffc,0x000c
0006f8  000c000c          DCW      0x000c,0x000c
0006fc  000c000c          DCW      0x000c,0x000c
000700  1ffc1ffc          DCW      0x1ffc,0x1ffc
000704  000c000c          DCW      0x000c,0x000c
000708  000c000c          DCW      0x000c,0x000c
00070c  000c000c          DCW      0x000c,0x000c
000710  3ffc3ffc          DCW      0x3ffc,0x3ffc
000714  00000000          DCW      0x0000,0x0000
000718  00000000          DCW      0x0000,0x0000
00071c  00000000          DCW      0x0000,0x0000
000720  00003ff8          DCW      0x0000,0x3ff8
000724  3ff80018          DCW      0x3ff8,0x0018
000728  00180018          DCW      0x0018,0x0018
00072c  00180018          DCW      0x0018,0x0018
000730  1ff81ff8          DCW      0x1ff8,0x1ff8
000734  00180018          DCW      0x0018,0x0018
000738  00180018          DCW      0x0018,0x0018
00073c  00180018          DCW      0x0018,0x0018
000740  00180018          DCW      0x0018,0x0018
000744  00000000          DCW      0x0000,0x0000
000748  00000000          DCW      0x0000,0x0000
00074c  00000000          DCW      0x0000,0x0000
000750  00000fe0          DCW      0x0000,0x0fe0
000754  3ff8783c          DCW      0x3ff8,0x783c
000758  600ee006          DCW      0x600e,0xe006
00075c  c0070003          DCW      0xc007,0x0003
000760  0003fe03          DCW      0x0003,0xfe03
000764  fe03c003          DCW      0xfe03,0xc003
000768  c007c006          DCW      0xc007,0xc006
00076c  c00ef03c          DCW      0xc00e,0xf03c
000770  3ff80fe0          DCW      0x3ff8,0x0fe0
000774  00000000          DCW      0x0000,0x0000
000778  00000000          DCW      0x0000,0x0000
00077c  00000000          DCW      0x0000,0x0000
000780  0000300c          DCW      0x0000,0x300c
000784  300c300c          DCW      0x300c,0x300c
000788  300c300c          DCW      0x300c,0x300c
00078c  300c300c          DCW      0x300c,0x300c
000790  3ffc3ffc          DCW      0x3ffc,0x3ffc
000794  300c300c          DCW      0x300c,0x300c
000798  300c300c          DCW      0x300c,0x300c
00079c  300c300c          DCW      0x300c,0x300c
0007a0  300c300c          DCW      0x300c,0x300c
0007a4  00000000          DCW      0x0000,0x0000
0007a8  00000000          DCW      0x0000,0x0000
0007ac  00000000          DCW      0x0000,0x0000
0007b0  00000180          DCW      0x0000,0x0180
0007b4  01800180          DCW      0x0180,0x0180
0007b8  01800180          DCW      0x0180,0x0180
0007bc  01800180          DCW      0x0180,0x0180
0007c0  01800180          DCW      0x0180,0x0180
0007c4  01800180          DCW      0x0180,0x0180
0007c8  01800180          DCW      0x0180,0x0180
0007cc  01800180          DCW      0x0180,0x0180
0007d0  01800180          DCW      0x0180,0x0180
0007d4  00000000          DCW      0x0000,0x0000
0007d8  00000000          DCW      0x0000,0x0000
0007dc  00000000          DCW      0x0000,0x0000
0007e0  00000600          DCW      0x0000,0x0600
0007e4  06000600          DCW      0x0600,0x0600
0007e8  06000600          DCW      0x0600,0x0600
0007ec  06000600          DCW      0x0600,0x0600
0007f0  06000600          DCW      0x0600,0x0600
0007f4  06000600          DCW      0x0600,0x0600
0007f8  06000618          DCW      0x0600,0x0618
0007fc  06180738          DCW      0x0618,0x0738
000800  03f001e0          DCW      0x03f0,0x01e0
000804  00000000          DCW      0x0000,0x0000
000808  00000000          DCW      0x0000,0x0000
00080c  00000000          DCW      0x0000,0x0000
000810  00003006          DCW      0x0000,0x3006
000814  18060c06          DCW      0x1806,0x0c06
000818  06060306          DCW      0x0606,0x0306
00081c  018600c6          DCW      0x0186,0x00c6
000820  00660076          DCW      0x0066,0x0076
000824  00de018e          DCW      0x00de,0x018e
000828  03060606          DCW      0x0306,0x0606
00082c  0c061806          DCW      0x0c06,0x1806
000830  30066006          DCW      0x3006,0x6006
000834  00000000          DCW      0x0000,0x0000
000838  00000000          DCW      0x0000,0x0000
00083c  00000000          DCW      0x0000,0x0000
000840  00000018          DCW      0x0000,0x0018
000844  00180018          DCW      0x0018,0x0018
000848  00180018          DCW      0x0018,0x0018
00084c  00180018          DCW      0x0018,0x0018
000850  00180018          DCW      0x0018,0x0018
000854  00180018          DCW      0x0018,0x0018
000858  00180018          DCW      0x0018,0x0018
00085c  00180018          DCW      0x0018,0x0018
000860  1ff81ff8          DCW      0x1ff8,0x1ff8
000864  00000000          DCW      0x0000,0x0000
000868  00000000          DCW      0x0000,0x0000
00086c  00000000          DCW      0x0000,0x0000
000870  0000e00e          DCW      0x0000,0xe00e
000874  f01ef01e          DCW      0xf01e,0xf01e
000878  f01ed836          DCW      0xf01e,0xd836
00087c  d836d836          DCW      0xd836,0xd836
000880  d836cc66          DCW      0xd836,0xcc66
000884  cc66cc66          DCW      0xcc66,0xcc66
000888  c6c6c6c6          DCW      0xc6c6,0xc6c6
00088c  c6c6c6c6          DCW      0xc6c6,0xc6c6
000890  c386c386          DCW      0xc386,0xc386
000894  00000000          DCW      0x0000,0x0000
000898  00000000          DCW      0x0000,0x0000
00089c  00000000          DCW      0x0000,0x0000
0008a0  0000300c          DCW      0x0000,0x300c
0008a4  301c303c          DCW      0x301c,0x303c
0008a8  303c306c          DCW      0x303c,0x306c
0008ac  306c30cc          DCW      0x306c,0x30cc
0008b0  30cc318c          DCW      0x30cc,0x318c
0008b4  330c330c          DCW      0x330c,0x330c
0008b8  360c360c          DCW      0x360c,0x360c
0008bc  3c0c3c0c          DCW      0x3c0c,0x3c0c
0008c0  380c300c          DCW      0x380c,0x300c
0008c4  00000000          DCW      0x0000,0x0000
0008c8  00000000          DCW      0x0000,0x0000
0008cc  00000000          DCW      0x0000,0x0000
0008d0  000007e0          DCW      0x0000,0x07e0
0008d4  1ff8381c          DCW      0x1ff8,0x381c
0008d8  700e6006          DCW      0x700e,0x6006
0008dc  c003c003          DCW      0xc003,0xc003
0008e0  c003c003          DCW      0xc003,0xc003
0008e4  c003c003          DCW      0xc003,0xc003
0008e8  c0036006          DCW      0xc003,0x6006
0008ec  700e381c          DCW      0x700e,0x381c
0008f0  1ff807e0          DCW      0x1ff8,0x07e0
0008f4  00000000          DCW      0x0000,0x0000
0008f8  00000000          DCW      0x0000,0x0000
0008fc  00000000          DCW      0x0000,0x0000
000900  00000ffc          DCW      0x0000,0x0ffc
000904  1ffc380c          DCW      0x1ffc,0x380c
000908  300c300c          DCW      0x300c,0x300c
00090c  300c300c          DCW      0x300c,0x300c
000910  180c1ffc          DCW      0x180c,0x1ffc
000914  07fc000c          DCW      0x07fc,0x000c
000918  000c000c          DCW      0x000c,0x000c
00091c  000c000c          DCW      0x000c,0x000c
000920  000c000c          DCW      0x000c,0x000c
000924  00000000          DCW      0x0000,0x0000
000928  00000000          DCW      0x0000,0x0000
00092c  00000000          DCW      0x0000,0x0000
000930  000007e0          DCW      0x0000,0x07e0
000934  1ff8381c          DCW      0x1ff8,0x381c
000938  700e6006          DCW      0x700e,0x6006
00093c  e003c003          DCW      0xe003,0xc003
000940  c003c003          DCW      0xc003,0xc003
000944  c003c003          DCW      0xc003,0xc003
000948  e0076306          DCW      0xe007,0x6306
00094c  3f0e3c1c          DCW      0x3f0e,0x3c1c
000950  3ff8f7e0          DCW      0x3ff8,0xf7e0
000954  c0000000          DCW      0xc000,0x0000
000958  00000000          DCW      0x0000,0x0000
00095c  00000000          DCW      0x0000,0x0000
000960  00000ffe          DCW      0x0000,0x0ffe
000964  1ffe3806          DCW      0x1ffe,0x3806
000968  30063006          DCW      0x3006,0x3006
00096c  30063806          DCW      0x3006,0x3806
000970  1ffe07fe          DCW      0x1ffe,0x07fe
000974  03060606          DCW      0x0306,0x0606
000978  0c061806          DCW      0x0c06,0x1806
00097c  18063006          DCW      0x1806,0x3006
000980  30066006          DCW      0x3006,0x6006
000984  00000000          DCW      0x0000,0x0000
000988  00000000          DCW      0x0000,0x0000
00098c  00000000          DCW      0x0000,0x0000
000990  000003e0          DCW      0x0000,0x03e0
000994  0ff80c1c          DCW      0x0ff8,0x0c1c
000998  180c180c          DCW      0x180c,0x180c
00099c  000c001c          DCW      0x000c,0x001c
0009a0  03f80fe0          DCW      0x03f8,0x0fe0
0009a4  1e003800          DCW      0x1e00,0x3800
0009a8  30063006          DCW      0x3006,0x3006
0009ac  300e1c1c          DCW      0x300e,0x1c1c
0009b0  0ff807e0          DCW      0x0ff8,0x07e0
0009b4  00000000          DCW      0x0000,0x0000
0009b8  00000000          DCW      0x0000,0x0000
0009bc  00000000          DCW      0x0000,0x0000
0009c0  00007ffe          DCW      0x0000,0x7ffe
0009c4  7ffe0180          DCW      0x7ffe,0x0180
0009c8  01800180          DCW      0x0180,0x0180
0009cc  01800180          DCW      0x0180,0x0180
0009d0  01800180          DCW      0x0180,0x0180
0009d4  01800180          DCW      0x0180,0x0180
0009d8  01800180          DCW      0x0180,0x0180
0009dc  01800180          DCW      0x0180,0x0180
0009e0  01800180          DCW      0x0180,0x0180
0009e4  00000000          DCW      0x0000,0x0000
0009e8  00000000          DCW      0x0000,0x0000
0009ec  00000000          DCW      0x0000,0x0000
0009f0  0000300c          DCW      0x0000,0x300c
0009f4  300c300c          DCW      0x300c,0x300c
0009f8  300c300c          DCW      0x300c,0x300c
0009fc  300c300c          DCW      0x300c,0x300c
000a00  300c300c          DCW      0x300c,0x300c
000a04  300c300c          DCW      0x300c,0x300c
000a08  300c300c          DCW      0x300c,0x300c
000a0c  300c1818          DCW      0x300c,0x1818
000a10  1ff807e0          DCW      0x1ff8,0x07e0
000a14  00000000          DCW      0x0000,0x0000
000a18  00000000          DCW      0x0000,0x0000
000a1c  00000000          DCW      0x0000,0x0000
000a20  00006003          DCW      0x0000,0x6003
000a24  30063006          DCW      0x3006,0x3006
000a28  3006180c          DCW      0x3006,0x180c
000a2c  180c180c          DCW      0x180c,0x180c
000a30  0c180c18          DCW      0x0c18,0x0c18
000a34  0e380630          DCW      0x0e38,0x0630
000a38  06300770          DCW      0x0630,0x0770
000a3c  03600360          DCW      0x0360,0x0360
000a40  01c001c0          DCW      0x01c0,0x01c0
000a44  00000000          DCW      0x0000,0x0000
000a48  00000000          DCW      0x0000,0x0000
000a4c  00000000          DCW      0x0000,0x0000
000a50  00006003          DCW      0x0000,0x6003
000a54  61c361c3          DCW      0x61c3,0x61c3
000a58  61c33366          DCW      0x61c3,0x3366
000a5c  33663366          DCW      0x3366,0x3366
000a60  33663366          DCW      0x3366,0x3366
000a64  33661b6c          DCW      0x3366,0x1b6c
000a68  1b6c1b6c          DCW      0x1b6c,0x1b6c
000a6c  1a2c1e3c          DCW      0x1a2c,0x1e3c
000a70  0e380e38          DCW      0x0e38,0x0e38
000a74  00000000          DCW      0x0000,0x0000
000a78  00000000          DCW      0x0000,0x0000
000a7c  00000000          DCW      0x0000,0x0000
000a80  0000e00f          DCW      0x0000,0xe00f
000a84  700c3018          DCW      0x700c,0x3018
000a88  18300c70          DCW      0x1830,0x0c70
000a8c  0e6007c0          DCW      0x0e60,0x07c0
000a90  03800380          DCW      0x0380,0x0380
000a94  03c006e0          DCW      0x03c0,0x06e0
000a98  0c701c30          DCW      0x0c70,0x1c30
000a9c  1818300c          DCW      0x1818,0x300c
000aa0  600ee007          DCW      0x600e,0xe007
000aa4  00000000          DCW      0x0000,0x0000
000aa8  00000000          DCW      0x0000,0x0000
000aac  00000000          DCW      0x0000,0x0000
000ab0  0000c003          DCW      0x0000,0xc003
000ab4  6006300c          DCW      0x6006,0x300c
000ab8  381c1838          DCW      0x381c,0x1838
000abc  0c300660          DCW      0x0c30,0x0660
000ac0  07e003c0          DCW      0x07e0,0x03c0
000ac4  01800180          DCW      0x0180,0x0180
000ac8  01800180          DCW      0x0180,0x0180
000acc  01800180          DCW      0x0180,0x0180
000ad0  01800180          DCW      0x0180,0x0180
000ad4  00000000          DCW      0x0000,0x0000
000ad8  00000000          DCW      0x0000,0x0000
000adc  00000000          DCW      0x0000,0x0000
000ae0  00007ffc          DCW      0x0000,0x7ffc
000ae4  7ffc6000          DCW      0x7ffc,0x6000
000ae8  30001800          DCW      0x3000,0x1800
000aec  0c000600          DCW      0x0c00,0x0600
000af0  03000180          DCW      0x0300,0x0180
000af4  00c00060          DCW      0x00c0,0x0060
000af8  00300018          DCW      0x0030,0x0018
000afc  000c0006          DCW      0x000c,0x0006
000b00  7ffe7ffe          DCW      0x7ffe,0x7ffe
000b04  00000000          DCW      0x0000,0x0000
000b08  00000000          DCW      0x0000,0x0000
000b0c  00000000          DCW      0x0000,0x0000
000b10  000003e0          DCW      0x0000,0x03e0
000b14  03e00060          DCW      0x03e0,0x0060
000b18  00600060          DCW      0x0060,0x0060
000b1c  00600060          DCW      0x0060,0x0060
000b20  00600060          DCW      0x0060,0x0060
000b24  00600060          DCW      0x0060,0x0060
000b28  00600060          DCW      0x0060,0x0060
000b2c  00600060          DCW      0x0060,0x0060
000b30  00600060          DCW      0x0060,0x0060
000b34  00600060          DCW      0x0060,0x0060
000b38  006003e0          DCW      0x0060,0x03e0
000b3c  03e00000          DCW      0x03e0,0x0000
000b40  00000030          DCW      0x0000,0x0030
000b44  00300060          DCW      0x0030,0x0060
000b48  00600060          DCW      0x0060,0x0060
000b4c  00c000c0          DCW      0x00c0,0x00c0
000b50  00c001c0          DCW      0x00c0,0x01c0
000b54  01800180          DCW      0x0180,0x0180
000b58  01800300          DCW      0x0180,0x0300
000b5c  03000300          DCW      0x0300,0x0300
000b60  06000600          DCW      0x0600,0x0600
000b64  00000000          DCW      0x0000,0x0000
000b68  00000000          DCW      0x0000,0x0000
000b6c  00000000          DCW      0x0000,0x0000
000b70  000003e0          DCW      0x0000,0x03e0
000b74  03e00300          DCW      0x03e0,0x0300
000b78  03000300          DCW      0x0300,0x0300
000b7c  03000300          DCW      0x0300,0x0300
000b80  03000300          DCW      0x0300,0x0300
000b84  03000300          DCW      0x0300,0x0300
000b88  03000300          DCW      0x0300,0x0300
000b8c  03000300          DCW      0x0300,0x0300
000b90  03000300          DCW      0x0300,0x0300
000b94  03000300          DCW      0x0300,0x0300
000b98  030003e0          DCW      0x0300,0x03e0
000b9c  03e00000          DCW      0x03e0,0x0000
000ba0  00000000          DCW      0x0000,0x0000
000ba4  01c001c0          DCW      0x01c0,0x01c0
000ba8  03600360          DCW      0x0360,0x0360
000bac  03600630          DCW      0x0360,0x0630
000bb0  06300c18          DCW      0x0630,0x0c18
000bb4  0c180000          DCW      0x0c18,0x0000
000bb8  00000000          DCW      0x0000,0x0000
000bbc  00000000          DCW      0x0000,0x0000
000bc0  00000000          DCW      0x0000,0x0000
000bc4  00000000          DCW      0x0000,0x0000
000bc8  00000000          DCW      0x0000,0x0000
000bcc  00000000          DCW      0x0000,0x0000
000bd0  00000000          DCW      0x0000,0x0000
000bd4  00000000          DCW      0x0000,0x0000
000bd8  00000000          DCW      0x0000,0x0000
000bdc  00000000          DCW      0x0000,0x0000
000be0  00000000          DCW      0x0000,0x0000
000be4  00000000          DCW      0x0000,0x0000
000be8  00000000          DCW      0x0000,0x0000
000bec  00000000          DCW      0x0000,0x0000
000bf0  0000ffff          DCW      0x0000,0xffff
000bf4  ffff0000          DCW      0xffff,0x0000
000bf8  00000000          DCW      0x0000,0x0000
000bfc  00000000          DCW      0x0000,0x0000
000c00  0000000c          DCW      0x0000,0x000c
000c04  000c000c          DCW      0x000c,0x000c
000c08  000c000c          DCW      0x000c,0x000c
000c0c  000c0000          DCW      0x000c,0x0000
000c10  00000000          DCW      0x0000,0x0000
000c14  00000000          DCW      0x0000,0x0000
000c18  00000000          DCW      0x0000,0x0000
000c1c  00000000          DCW      0x0000,0x0000
000c20  00000000          DCW      0x0000,0x0000
000c24  00000000          DCW      0x0000,0x0000
000c28  00000000          DCW      0x0000,0x0000
000c2c  00000000          DCW      0x0000,0x0000
000c30  00000000          DCW      0x0000,0x0000
000c34  00000000          DCW      0x0000,0x0000
000c38  00000000          DCW      0x0000,0x0000
000c3c  03f007f8          DCW      0x03f0,0x07f8
000c40  0c1c0c0c          DCW      0x0c1c,0x0c0c
000c44  0f000ff0          DCW      0x0f00,0x0ff0
000c48  0cf80c0c          DCW      0x0cf8,0x0c0c
000c4c  0c0c0f1c          DCW      0x0c0c,0x0f1c
000c50  0ff818f0          DCW      0x0ff8,0x18f0
000c54  00000000          DCW      0x0000,0x0000
000c58  00000000          DCW      0x0000,0x0000
000c5c  00000000          DCW      0x0000,0x0000
000c60  00000018          DCW      0x0000,0x0018
000c64  00180018          DCW      0x0018,0x0018
000c68  00180018          DCW      0x0018,0x0018
000c6c  03d80ff8          DCW      0x03d8,0x0ff8
000c70  0c381818          DCW      0x0c38,0x1818
000c74  18181818          DCW      0x1818,0x1818
000c78  18181818          DCW      0x1818,0x1818
000c7c  18180c38          DCW      0x1818,0x0c38
000c80  0ff803d8          DCW      0x0ff8,0x03d8
000c84  00000000          DCW      0x0000,0x0000
000c88  00000000          DCW      0x0000,0x0000
000c8c  00000000          DCW      0x0000,0x0000
000c90  00000000          DCW      0x0000,0x0000
000c94  00000000          DCW      0x0000,0x0000
000c98  00000000          DCW      0x0000,0x0000
000c9c  03c007f0          DCW      0x03c0,0x07f0
000ca0  0e300c18          DCW      0x0e30,0x0c18
000ca4  00180018          DCW      0x0018,0x0018
000ca8  00180018          DCW      0x0018,0x0018
000cac  0c180e30          DCW      0x0c18,0x0e30
000cb0  07f003c0          DCW      0x07f0,0x03c0
000cb4  00000000          DCW      0x0000,0x0000
000cb8  00000000          DCW      0x0000,0x0000
000cbc  00000000          DCW      0x0000,0x0000
000cc0  00001800          DCW      0x0000,0x1800
000cc4  18001800          DCW      0x1800,0x1800
000cc8  18001800          DCW      0x1800,0x1800
000ccc  1bc01ff0          DCW      0x1bc0,0x1ff0
000cd0  1c301818          DCW      0x1c30,0x1818
000cd4  18181818          DCW      0x1818,0x1818
000cd8  18181818          DCW      0x1818,0x1818
000cdc  18181c30          DCW      0x1818,0x1c30
000ce0  1ff01bc0          DCW      0x1ff0,0x1bc0
000ce4  00000000          DCW      0x0000,0x0000
000ce8  00000000          DCW      0x0000,0x0000
000cec  00000000          DCW      0x0000,0x0000
000cf0  00000000          DCW      0x0000,0x0000
000cf4  00000000          DCW      0x0000,0x0000
000cf8  00000000          DCW      0x0000,0x0000
000cfc  03c00ff0          DCW      0x03c0,0x0ff0
000d00  0c301818          DCW      0x0c30,0x1818
000d04  1ff81ff8          DCW      0x1ff8,0x1ff8
000d08  00180018          DCW      0x0018,0x0018
000d0c  18381c30          DCW      0x1838,0x1c30
000d10  0ff007c0          DCW      0x0ff0,0x07c0
000d14  00000000          DCW      0x0000,0x0000
000d18  00000000          DCW      0x0000,0x0000
000d1c  00000000          DCW      0x0000,0x0000
000d20  00000f80          DCW      0x0000,0x0f80
000d24  0fc000c0          DCW      0x0fc0,0x00c0
000d28  00c000c0          DCW      0x00c0,0x00c0
000d2c  07f007f0          DCW      0x07f0,0x07f0
000d30  00c000c0          DCW      0x00c0,0x00c0
000d34  00c000c0          DCW      0x00c0,0x00c0
000d38  00c000c0          DCW      0x00c0,0x00c0
000d3c  00c000c0          DCW      0x00c0,0x00c0
000d40  00c000c0          DCW      0x00c0,0x00c0
000d44  00000000          DCW      0x0000,0x0000
000d48  00000000          DCW      0x0000,0x0000
000d4c  00000000          DCW      0x0000,0x0000
000d50  00000000          DCW      0x0000,0x0000
000d54  00000000          DCW      0x0000,0x0000
000d58  00000000          DCW      0x0000,0x0000
000d5c  0de00ff8          DCW      0x0de0,0x0ff8
000d60  0e180c0c          DCW      0x0e18,0x0c0c
000d64  0c0c0c0c          DCW      0x0c0c,0x0c0c
000d68  0c0c0c0c          DCW      0x0c0c,0x0c0c
000d6c  0c0c0e18          DCW      0x0c0c,0x0e18
000d70  0ff80de0          DCW      0x0ff8,0x0de0
000d74  0c000c0c          DCW      0x0c00,0x0c0c
000d78  061c07f8          DCW      0x061c,0x07f8
000d7c  01f00000          DCW      0x01f0,0x0000
000d80  00000018          DCW      0x0000,0x0018
000d84  00180018          DCW      0x0018,0x0018
000d88  00180018          DCW      0x0018,0x0018
000d8c  07d80ff8          DCW      0x07d8,0x0ff8
000d90  1c381818          DCW      0x1c38,0x1818
000d94  18181818          DCW      0x1818,0x1818
000d98  18181818          DCW      0x1818,0x1818
000d9c  18181818          DCW      0x1818,0x1818
000da0  18181818          DCW      0x1818,0x1818
000da4  00000000          DCW      0x0000,0x0000
000da8  00000000          DCW      0x0000,0x0000
000dac  00000000          DCW      0x0000,0x0000
000db0  000000c0          DCW      0x0000,0x00c0
000db4  00c00000          DCW      0x00c0,0x0000
000db8  00000000          DCW      0x0000,0x0000
000dbc  00c000c0          DCW      0x00c0,0x00c0
000dc0  00c000c0          DCW      0x00c0,0x00c0
000dc4  00c000c0          DCW      0x00c0,0x00c0
000dc8  00c000c0          DCW      0x00c0,0x00c0
000dcc  00c000c0          DCW      0x00c0,0x00c0
000dd0  00c000c0          DCW      0x00c0,0x00c0
000dd4  00000000          DCW      0x0000,0x0000
000dd8  00000000          DCW      0x0000,0x0000
000ddc  00000000          DCW      0x0000,0x0000
000de0  000000c0          DCW      0x0000,0x00c0
000de4  00c00000          DCW      0x00c0,0x0000
000de8  00000000          DCW      0x0000,0x0000
000dec  00c000c0          DCW      0x00c0,0x00c0
000df0  00c000c0          DCW      0x00c0,0x00c0
000df4  00c000c0          DCW      0x00c0,0x00c0
000df8  00c000c0          DCW      0x00c0,0x00c0
000dfc  00c000c0          DCW      0x00c0,0x00c0
000e00  00c000c0          DCW      0x00c0,0x00c0
000e04  00c000c0          DCW      0x00c0,0x00c0
000e08  00c000f8          DCW      0x00c0,0x00f8
000e0c  00780000          DCW      0x0078,0x0000
000e10  0000000c          DCW      0x0000,0x000c
000e14  000c000c          DCW      0x000c,0x000c
000e18  000c000c          DCW      0x000c,0x000c
000e1c  0c0c060c          DCW      0x0c0c,0x060c
000e20  030c018c          DCW      0x030c,0x018c
000e24  00cc006c          DCW      0x00cc,0x006c
000e28  00fc019c          DCW      0x00fc,0x019c
000e2c  038c030c          DCW      0x038c,0x030c
000e30  060c0c0c          DCW      0x060c,0x0c0c
000e34  00000000          DCW      0x0000,0x0000
000e38  00000000          DCW      0x0000,0x0000
000e3c  00000000          DCW      0x0000,0x0000
000e40  000000c0          DCW      0x0000,0x00c0
000e44  00c000c0          DCW      0x00c0,0x00c0
000e48  00c000c0          DCW      0x00c0,0x00c0
000e4c  00c000c0          DCW      0x00c0,0x00c0
000e50  00c000c0          DCW      0x00c0,0x00c0
000e54  00c000c0          DCW      0x00c0,0x00c0
000e58  00c000c0          DCW      0x00c0,0x00c0
000e5c  00c000c0          DCW      0x00c0,0x00c0
000e60  00c000c0          DCW      0x00c0,0x00c0
000e64  00000000          DCW      0x0000,0x0000
000e68  00000000          DCW      0x0000,0x0000
000e6c  00000000          DCW      0x0000,0x0000
000e70  00000000          DCW      0x0000,0x0000
000e74  00000000          DCW      0x0000,0x0000
000e78  00000000          DCW      0x0000,0x0000
000e7c  3c7c7eff          DCW      0x3c7c,0x7eff
000e80  e3c7c183          DCW      0xe3c7,0xc183
000e84  c183c183          DCW      0xc183,0xc183
000e88  c183c183          DCW      0xc183,0xc183
000e8c  c183c183          DCW      0xc183,0xc183
000e90  c183c183          DCW      0xc183,0xc183
000e94  00000000          DCW      0x0000,0x0000
000e98  00000000          DCW      0x0000,0x0000
000e9c  00000000          DCW      0x0000,0x0000
000ea0  00000000          DCW      0x0000,0x0000
000ea4  00000000          DCW      0x0000,0x0000
000ea8  00000000          DCW      0x0000,0x0000
000eac  07980ff8          DCW      0x0798,0x0ff8
000eb0  1c381818          DCW      0x1c38,0x1818
000eb4  18181818          DCW      0x1818,0x1818
000eb8  18181818          DCW      0x1818,0x1818
000ebc  18181818          DCW      0x1818,0x1818
000ec0  18181818          DCW      0x1818,0x1818
000ec4  00000000          DCW      0x0000,0x0000
000ec8  00000000          DCW      0x0000,0x0000
000ecc  00000000          DCW      0x0000,0x0000
000ed0  00000000          DCW      0x0000,0x0000
000ed4  00000000          DCW      0x0000,0x0000
000ed8  00000000          DCW      0x0000,0x0000
000edc  03c00ff0          DCW      0x03c0,0x0ff0
000ee0  0c301818          DCW      0x0c30,0x1818
000ee4  18181818          DCW      0x1818,0x1818
000ee8  18181818          DCW      0x1818,0x1818
000eec  18180c30          DCW      0x1818,0x0c30
000ef0  0ff003c0          DCW      0x0ff0,0x03c0
000ef4  00000000          DCW      0x0000,0x0000
000ef8  00000000          DCW      0x0000,0x0000
000efc  00000000          DCW      0x0000,0x0000
000f00  00000000          DCW      0x0000,0x0000
000f04  00000000          DCW      0x0000,0x0000
000f08  00000000          DCW      0x0000,0x0000
000f0c  03d80ff8          DCW      0x03d8,0x0ff8
000f10  0c381818          DCW      0x0c38,0x1818
000f14  18181818          DCW      0x1818,0x1818
000f18  18181818          DCW      0x1818,0x1818
000f1c  18180c38          DCW      0x1818,0x0c38
000f20  0ff803d8          DCW      0x0ff8,0x03d8
000f24  00180018          DCW      0x0018,0x0018
000f28  00180018          DCW      0x0018,0x0018
000f2c  00180000          DCW      0x0018,0x0000
000f30  00000000          DCW      0x0000,0x0000
000f34  00000000          DCW      0x0000,0x0000
000f38  00000000          DCW      0x0000,0x0000
000f3c  1bc01ff0          DCW      0x1bc0,0x1ff0
000f40  1c301818          DCW      0x1c30,0x1818
000f44  18181818          DCW      0x1818,0x1818
000f48  18181818          DCW      0x1818,0x1818
000f4c  18181c30          DCW      0x1818,0x1c30
000f50  1ff01bc0          DCW      0x1ff0,0x1bc0
000f54  18001800          DCW      0x1800,0x1800
000f58  18001800          DCW      0x1800,0x1800
000f5c  18000000          DCW      0x1800,0x0000
000f60  00000000          DCW      0x0000,0x0000
000f64  00000000          DCW      0x0000,0x0000
000f68  00000000          DCW      0x0000,0x0000
000f6c  07b003f0          DCW      0x07b0,0x03f0
000f70  00700030          DCW      0x0070,0x0030
000f74  00300030          DCW      0x0030,0x0030
000f78  00300030          DCW      0x0030,0x0030
000f7c  00300030          DCW      0x0030,0x0030
000f80  00300030          DCW      0x0030,0x0030
000f84  00000000          DCW      0x0000,0x0000
000f88  00000000          DCW      0x0000,0x0000
000f8c  00000000          DCW      0x0000,0x0000
000f90  00000000          DCW      0x0000,0x0000
000f94  00000000          DCW      0x0000,0x0000
000f98  00000000          DCW      0x0000,0x0000
000f9c  03e003f0          DCW      0x03e0,0x03f0
000fa0  0e380c18          DCW      0x0e38,0x0c18
000fa4  003803f0          DCW      0x0038,0x03f0
000fa8  07c00c00          DCW      0x07c0,0x0c00
000fac  0c180e38          DCW      0x0c18,0x0e38
000fb0  07f003e0          DCW      0x07f0,0x03e0
000fb4  00000000          DCW      0x0000,0x0000
000fb8  00000000          DCW      0x0000,0x0000
000fbc  00000000          DCW      0x0000,0x0000
000fc0  00000000          DCW      0x0000,0x0000
000fc4  008000c0          DCW      0x0080,0x00c0
000fc8  00c000c0          DCW      0x00c0,0x00c0
000fcc  07f007f0          DCW      0x07f0,0x07f0
000fd0  00c000c0          DCW      0x00c0,0x00c0
000fd4  00c000c0          DCW      0x00c0,0x00c0
000fd8  00c000c0          DCW      0x00c0,0x00c0
000fdc  00c000c0          DCW      0x00c0,0x00c0
000fe0  07c00780          DCW      0x07c0,0x0780
000fe4  00000000          DCW      0x0000,0x0000
000fe8  00000000          DCW      0x0000,0x0000
000fec  00000000          DCW      0x0000,0x0000
000ff0  00000000          DCW      0x0000,0x0000
000ff4  00000000          DCW      0x0000,0x0000
000ff8  00000000          DCW      0x0000,0x0000
000ffc  18181818          DCW      0x1818,0x1818
001000  18181818          DCW      0x1818,0x1818
001004  18181818          DCW      0x1818,0x1818
001008  18181818          DCW      0x1818,0x1818
00100c  18181c38          DCW      0x1818,0x1c38
001010  1ff019e0          DCW      0x1ff0,0x19e0
001014  00000000          DCW      0x0000,0x0000
001018  00000000          DCW      0x0000,0x0000
00101c  00000000          DCW      0x0000,0x0000
001020  00000000          DCW      0x0000,0x0000
001024  00000000          DCW      0x0000,0x0000
001028  00000000          DCW      0x0000,0x0000
00102c  180c0c18          DCW      0x180c,0x0c18
001030  0c180c18          DCW      0x0c18,0x0c18
001034  06300630          DCW      0x0630,0x0630
001038  06300360          DCW      0x0630,0x0360
00103c  03600360          DCW      0x0360,0x0360
001040  01c001c0          DCW      0x01c0,0x01c0
001044  00000000          DCW      0x0000,0x0000
001048  00000000          DCW      0x0000,0x0000
00104c  00000000          DCW      0x0000,0x0000
001050  00000000          DCW      0x0000,0x0000
001054  00000000          DCW      0x0000,0x0000
001058  00000000          DCW      0x0000,0x0000
00105c  41c141c1          DCW      0x41c1,0x41c1
001060  61c36363          DCW      0x61c3,0x6363
001064  63636363          DCW      0x6363,0x6363
001068  36363636          DCW      0x3636,0x3636
00106c  36361c1c          DCW      0x3636,0x1c1c
001070  1c1c1c1c          DCW      0x1c1c,0x1c1c
001074  00000000          DCW      0x0000,0x0000
001078  00000000          DCW      0x0000,0x0000
00107c  00000000          DCW      0x0000,0x0000
001080  00000000          DCW      0x0000,0x0000
001084  00000000          DCW      0x0000,0x0000
001088  00000000          DCW      0x0000,0x0000
00108c  381c1c38          DCW      0x381c,0x1c38
001090  0c300660          DCW      0x0c30,0x0660
001094  03600360          DCW      0x0360,0x0360
001098  03600360          DCW      0x0360,0x0360
00109c  06600c30          DCW      0x0660,0x0c30
0010a0  1c38381c          DCW      0x1c38,0x381c
0010a4  00000000          DCW      0x0000,0x0000
0010a8  00000000          DCW      0x0000,0x0000
0010ac  00000000          DCW      0x0000,0x0000
0010b0  00000000          DCW      0x0000,0x0000
0010b4  00000000          DCW      0x0000,0x0000
0010b8  00000000          DCW      0x0000,0x0000
0010bc  30181830          DCW      0x3018,0x1830
0010c0  18301870          DCW      0x1830,0x1870
0010c4  0c600c60          DCW      0x0c60,0x0c60
0010c8  0ce006c0          DCW      0x0ce0,0x06c0
0010cc  06c00380          DCW      0x06c0,0x0380
0010d0  03800380          DCW      0x0380,0x0380
0010d4  01800180          DCW      0x0180,0x0180
0010d8  01c000f0          DCW      0x01c0,0x00f0
0010dc  00700000          DCW      0x0070,0x0000
0010e0  00000000          DCW      0x0000,0x0000
0010e4  00000000          DCW      0x0000,0x0000
0010e8  00000000          DCW      0x0000,0x0000
0010ec  1ffc1ffc          DCW      0x1ffc,0x1ffc
0010f0  0c000600          DCW      0x0c00,0x0600
0010f4  03000180          DCW      0x0300,0x0180
0010f8  00c00060          DCW      0x00c0,0x0060
0010fc  00300018          DCW      0x0030,0x0018
001100  1ffc1ffc          DCW      0x1ffc,0x1ffc
001104  00000000          DCW      0x0000,0x0000
001108  00000000          DCW      0x0000,0x0000
00110c  00000000          DCW      0x0000,0x0000
001110  00000300          DCW      0x0000,0x0300
001114  018000c0          DCW      0x0180,0x00c0
001118  00c000c0          DCW      0x00c0,0x00c0
00111c  00c000c0          DCW      0x00c0,0x00c0
001120  00c00060          DCW      0x00c0,0x0060
001124  00600030          DCW      0x0060,0x0030
001128  00600040          DCW      0x0060,0x0040
00112c  00c000c0          DCW      0x00c0,0x00c0
001130  00c000c0          DCW      0x00c0,0x00c0
001134  00c000c0          DCW      0x00c0,0x00c0
001138  01800300          DCW      0x0180,0x0300
00113c  00000000          DCW      0x0000,0x0000
001140  00000180          DCW      0x0000,0x0180
001144  01800180          DCW      0x0180,0x0180
001148  01800180          DCW      0x0180,0x0180
00114c  01800180          DCW      0x0180,0x0180
001150  01800180          DCW      0x0180,0x0180
001154  01800180          DCW      0x0180,0x0180
001158  01800180          DCW      0x0180,0x0180
00115c  01800180          DCW      0x0180,0x0180
001160  01800180          DCW      0x0180,0x0180
001164  01800180          DCW      0x0180,0x0180
001168  01800180          DCW      0x0180,0x0180
00116c  01800000          DCW      0x0180,0x0000
001170  00000060          DCW      0x0000,0x0060
001174  00c001c0          DCW      0x00c0,0x01c0
001178  01800180          DCW      0x0180,0x0180
00117c  01800180          DCW      0x0180,0x0180
001180  01800300          DCW      0x0180,0x0300
001184  03000600          DCW      0x0300,0x0600
001188  03000100          DCW      0x0300,0x0100
00118c  01800180          DCW      0x0180,0x0180
001190  01800180          DCW      0x0180,0x0180
001194  01800180          DCW      0x0180,0x0180
001198  00c00060          DCW      0x00c0,0x0060
00119c  00000000          DCW      0x0000,0x0000
0011a0  00000000          DCW      0x0000,0x0000
0011a4  00000000          DCW      0x0000,0x0000
0011a8  00000000          DCW      0x0000,0x0000
0011ac  00000000          DCW      0x0000,0x0000
0011b0  10f01ff8          DCW      0x10f0,0x1ff8
0011b4  0f080000          DCW      0x0f08,0x0000
0011b8  00000000          DCW      0x0000,0x0000
0011bc  00000000          DCW      0x0000,0x0000
0011c0  00000000          DCW      0x0000,0x0000
0011c4  00000000          DCW      0x0000,0x0000
0011c8  00000000          DCW      0x0000,0x0000
0011cc  00000000          DCW      0x0000,0x0000

                          AREA ||area_number.46||, DATA, READONLY, ALIGN=1

                          EXPORTAS ||area_number.46||, ||.constdata||
                  ASCII12x12_Table
000000  00000000          DCW      0x0000,0x0000
000004  00000000          DCW      0x0000,0x0000
000008  00000000          DCW      0x0000,0x0000
00000c  00000000          DCW      0x0000,0x0000
000010  00000000          DCW      0x0000,0x0000
000014  00000000          DCW      0x0000,0x0000
000018  00002000          DCW      0x0000,0x2000
00001c  20002000          DCW      0x2000,0x2000
000020  20002000          DCW      0x2000,0x2000
000024  20002000          DCW      0x2000,0x2000
000028  00002000          DCW      0x0000,0x2000
00002c  00000000          DCW      0x0000,0x0000
000030  00005000          DCW      0x0000,0x5000
000034  50005000          DCW      0x5000,0x5000
000038  00000000          DCW      0x0000,0x0000
00003c  00000000          DCW      0x0000,0x0000
000040  00000000          DCW      0x0000,0x0000
000044  00000000          DCW      0x0000,0x0000
000048  00000900          DCW      0x0000,0x0900
00004c  09001200          DCW      0x0900,0x1200
000050  7f001200          DCW      0x7f00,0x1200
000054  7f001200          DCW      0x7f00,0x1200
000058  24002400          DCW      0x2400,0x2400
00005c  00000000          DCW      0x0000,0x0000
000060  10003800          DCW      0x1000,0x3800
000064  54005000          DCW      0x5400,0x5000
000068  50003800          DCW      0x5000,0x3800
00006c  14005400          DCW      0x1400,0x5400
000070  54003800          DCW      0x5400,0x3800
000074  10000000          DCW      0x1000,0x0000
000078  00003080          DCW      0x0000,0x3080
00007c  49004900          DCW      0x4900,0x4900
000080  4a0032c0          DCW      0x4a00,0x32c0
000084  05200920          DCW      0x0520,0x0920
000088  092010c0          DCW      0x0920,0x10c0
00008c  00000000          DCW      0x0000,0x0000
000090  00000c00          DCW      0x0000,0x0c00
000094  12001200          DCW      0x1200,0x1200
000098  14001800          DCW      0x1400,0x1800
00009c  25002300          DCW      0x2500,0x2300
0000a0  23001d80          DCW      0x2300,0x1d80
0000a4  00000000          DCW      0x0000,0x0000
0000a8  00004000          DCW      0x0000,0x4000
0000ac  40004000          DCW      0x4000,0x4000
0000b0  00000000          DCW      0x0000,0x0000
0000b4  00000000          DCW      0x0000,0x0000
0000b8  00000000          DCW      0x0000,0x0000
0000bc  00000000          DCW      0x0000,0x0000
0000c0  00000800          DCW      0x0000,0x0800
0000c4  10001000          DCW      0x1000,0x1000
0000c8  20002000          DCW      0x2000,0x2000
0000cc  20002000          DCW      0x2000,0x2000
0000d0  20002000          DCW      0x2000,0x2000
0000d4  10001000          DCW      0x1000,0x1000
0000d8  00004000          DCW      0x0000,0x4000
0000dc  20002000          DCW      0x2000,0x2000
0000e0  10001000          DCW      0x1000,0x1000
0000e4  10001000          DCW      0x1000,0x1000
0000e8  10001000          DCW      0x1000,0x1000
0000ec  20002000          DCW      0x2000,0x2000
0000f0  00002000          DCW      0x0000,0x2000
0000f4  70002000          DCW      0x7000,0x2000
0000f8  50000000          DCW      0x5000,0x0000
0000fc  00000000          DCW      0x0000,0x0000
000100  00000000          DCW      0x0000,0x0000
000104  00000000          DCW      0x0000,0x0000
000108  00000000          DCW      0x0000,0x0000
00010c  00000800          DCW      0x0000,0x0800
000110  08007f00          DCW      0x0800,0x7f00
000114  08000800          DCW      0x0800,0x0800
000118  00000000          DCW      0x0000,0x0000
00011c  00000000          DCW      0x0000,0x0000
000120  00000000          DCW      0x0000,0x0000
000124  00000000          DCW      0x0000,0x0000
000128  00000000          DCW      0x0000,0x0000
00012c  00000000          DCW      0x0000,0x0000
000130  00002000          DCW      0x0000,0x2000
000134  20004000          DCW      0x2000,0x4000
000138  00000000          DCW      0x0000,0x0000
00013c  00000000          DCW      0x0000,0x0000
000140  00000000          DCW      0x0000,0x0000
000144  70000000          DCW      0x7000,0x0000
000148  00000000          DCW      0x0000,0x0000
00014c  00000000          DCW      0x0000,0x0000
000150  00000000          DCW      0x0000,0x0000
000154  00000000          DCW      0x0000,0x0000
000158  00000000          DCW      0x0000,0x0000
00015c  00000000          DCW      0x0000,0x0000
000160  00002000          DCW      0x0000,0x2000
000164  00000000          DCW      0x0000,0x0000
000168  00001000          DCW      0x0000,0x1000
00016c  10001000          DCW      0x1000,0x1000
000170  20002000          DCW      0x2000,0x2000
000174  20002000          DCW      0x2000,0x2000
000178  40004000          DCW      0x4000,0x4000
00017c  00000000          DCW      0x0000,0x0000
000180  00001000          DCW      0x0000,0x1000
000184  28004400          DCW      0x2800,0x4400
000188  44004400          DCW      0x4400,0x4400
00018c  44004400          DCW      0x4400,0x4400
000190  28001000          DCW      0x2800,0x1000
000194  00000000          DCW      0x0000,0x0000
000198  00001000          DCW      0x0000,0x1000
00019c  30005000          DCW      0x3000,0x5000
0001a0  10001000          DCW      0x1000,0x1000
0001a4  10001000          DCW      0x1000,0x1000
0001a8  10001000          DCW      0x1000,0x1000
0001ac  00000000          DCW      0x0000,0x0000
0001b0  00003000          DCW      0x0000,0x3000
0001b4  48004400          DCW      0x4800,0x4400
0001b8  04000800          DCW      0x0400,0x0800
0001bc  10002000          DCW      0x1000,0x2000
0001c0  40007c00          DCW      0x4000,0x7c00
0001c4  00000000          DCW      0x0000,0x0000
0001c8  00003000          DCW      0x0000,0x3000
0001cc  48000400          DCW      0x4800,0x0400
0001d0  08001000          DCW      0x0800,0x1000
0001d4  08004400          DCW      0x0800,0x4400
0001d8  48003000          DCW      0x4800,0x3000
0001dc  00000000          DCW      0x0000,0x0000
0001e0  00000800          DCW      0x0000,0x0800
0001e4  18001800          DCW      0x1800,0x1800
0001e8  28002800          DCW      0x2800,0x2800
0001ec  48007c00          DCW      0x4800,0x7c00
0001f0  08000800          DCW      0x0800,0x0800
0001f4  00000000          DCW      0x0000,0x0000
0001f8  00003c00          DCW      0x0000,0x3c00
0001fc  20004000          DCW      0x2000,0x4000
000200  70004800          DCW      0x7000,0x4800
000204  04004400          DCW      0x0400,0x4400
000208  48003000          DCW      0x4800,0x3000
00020c  00000000          DCW      0x0000,0x0000
000210  00001800          DCW      0x0000,0x1800
000214  24004000          DCW      0x2400,0x4000
000218  50006800          DCW      0x5000,0x6800
00021c  44004400          DCW      0x4400,0x4400
000220  28001000          DCW      0x2800,0x1000
000224  00000000          DCW      0x0000,0x0000
000228  00007c00          DCW      0x0000,0x7c00
00022c  04000800          DCW      0x0400,0x0800
000230  10001000          DCW      0x1000,0x1000
000234  10002000          DCW      0x1000,0x2000
000238  20002000          DCW      0x2000,0x2000
00023c  00000000          DCW      0x0000,0x0000
000240  00001000          DCW      0x0000,0x1000
000244  28004400          DCW      0x2800,0x4400
000248  28001000          DCW      0x2800,0x1000
00024c  28004400          DCW      0x2800,0x4400
000250  28001000          DCW      0x2800,0x1000
000254  00000000          DCW      0x0000,0x0000
000258  00001000          DCW      0x0000,0x1000
00025c  28004400          DCW      0x2800,0x4400
000260  44002c00          DCW      0x4400,0x2c00
000264  14000400          DCW      0x1400,0x0400
000268  48003000          DCW      0x4800,0x3000
00026c  00000000          DCW      0x0000,0x0000
000270  00000000          DCW      0x0000,0x0000
000274  00002000          DCW      0x0000,0x2000
000278  00000000          DCW      0x0000,0x0000
00027c  00000000          DCW      0x0000,0x0000
000280  00002000          DCW      0x0000,0x2000
000284  00000000          DCW      0x0000,0x0000
000288  00000000          DCW      0x0000,0x0000
00028c  00002000          DCW      0x0000,0x2000
000290  00000000          DCW      0x0000,0x0000
000294  00000000          DCW      0x0000,0x0000
000298  00002000          DCW      0x0000,0x2000
00029c  20004000          DCW      0x2000,0x4000
0002a0  00000000          DCW      0x0000,0x0000
0002a4  04000800          DCW      0x0400,0x0800
0002a8  30004000          DCW      0x3000,0x4000
0002ac  30000800          DCW      0x3000,0x0800
0002b0  04000000          DCW      0x0400,0x0000
0002b4  00000000          DCW      0x0000,0x0000
0002b8  00000000          DCW      0x0000,0x0000
0002bc  00007c00          DCW      0x0000,0x7c00
0002c0  00000000          DCW      0x0000,0x0000
0002c4  7c000000          DCW      0x7c00,0x0000
0002c8  00000000          DCW      0x0000,0x0000
0002cc  00000000          DCW      0x0000,0x0000
0002d0  00000000          DCW      0x0000,0x0000
0002d4  40002000          DCW      0x4000,0x2000
0002d8  18000400          DCW      0x1800,0x0400
0002dc  18002000          DCW      0x1800,0x2000
0002e0  40000000          DCW      0x4000,0x0000
0002e4  00000000          DCW      0x0000,0x0000
0002e8  00003800          DCW      0x0000,0x3800
0002ec  64004400          DCW      0x6400,0x4400
0002f0  04000800          DCW      0x0400,0x0800
0002f4  10001000          DCW      0x1000,0x1000
0002f8  00001000          DCW      0x0000,0x1000
0002fc  00000000          DCW      0x0000,0x0000
000300  00000f80          DCW      0x0000,0x0f80
000304  10402ea0          DCW      0x1040,0x2ea0
000308  51a05120          DCW      0x51a0,0x5120
00030c  51205120          DCW      0x5120,0x5120
000310  53204dc0          DCW      0x5320,0x4dc0
000314  20201040          DCW      0x2020,0x1040
000318  00000800          DCW      0x0000,0x0800
00031c  14001400          DCW      0x1400,0x1400
000320  14002200          DCW      0x1400,0x2200
000324  3e002200          DCW      0x3e00,0x2200
000328  41004100          DCW      0x4100,0x4100
00032c  00000000          DCW      0x0000,0x0000
000330  00003c00          DCW      0x0000,0x3c00
000334  22002200          DCW      0x2200,0x2200
000338  22003c00          DCW      0x2200,0x3c00
00033c  22002200          DCW      0x2200,0x2200
000340  22003c00          DCW      0x2200,0x3c00
000344  00000000          DCW      0x0000,0x0000
000348  00000e00          DCW      0x0000,0x0e00
00034c  11002100          DCW      0x1100,0x2100
000350  20002000          DCW      0x2000,0x2000
000354  20002100          DCW      0x2000,0x2100
000358  11000e00          DCW      0x1100,0x0e00
00035c  00000000          DCW      0x0000,0x0000
000360  00003c00          DCW      0x0000,0x3c00
000364  22002100          DCW      0x2200,0x2100
000368  21002100          DCW      0x2100,0x2100
00036c  21002100          DCW      0x2100,0x2100
000370  22003c00          DCW      0x2200,0x3c00
000374  00000000          DCW      0x0000,0x0000
000378  00003e00          DCW      0x0000,0x3e00
00037c  20002000          DCW      0x2000,0x2000
000380  20003e00          DCW      0x2000,0x3e00
000384  20002000          DCW      0x2000,0x2000
000388  20003e00          DCW      0x2000,0x3e00
00038c  00000000          DCW      0x0000,0x0000
000390  00003e00          DCW      0x0000,0x3e00
000394  20002000          DCW      0x2000,0x2000
000398  20003c00          DCW      0x2000,0x3c00
00039c  20002000          DCW      0x2000,0x2000
0003a0  20002000          DCW      0x2000,0x2000
0003a4  00000000          DCW      0x0000,0x0000
0003a8  00000e00          DCW      0x0000,0x0e00
0003ac  11002100          DCW      0x1100,0x2100
0003b0  20002700          DCW      0x2000,0x2700
0003b4  21002100          DCW      0x2100,0x2100
0003b8  11000e00          DCW      0x1100,0x0e00
0003bc  00000000          DCW      0x0000,0x0000
0003c0  00002100          DCW      0x0000,0x2100
0003c4  21002100          DCW      0x2100,0x2100
0003c8  21003f00          DCW      0x2100,0x3f00
0003cc  21002100          DCW      0x2100,0x2100
0003d0  21002100          DCW      0x2100,0x2100
0003d4  00000000          DCW      0x0000,0x0000
0003d8  00002000          DCW      0x0000,0x2000
0003dc  20002000          DCW      0x2000,0x2000
0003e0  20002000          DCW      0x2000,0x2000
0003e4  20002000          DCW      0x2000,0x2000
0003e8  20002000          DCW      0x2000,0x2000
0003ec  00000000          DCW      0x0000,0x0000
0003f0  00000800          DCW      0x0000,0x0800
0003f4  08000800          DCW      0x0800,0x0800
0003f8  08000800          DCW      0x0800,0x0800
0003fc  08004800          DCW      0x0800,0x4800
000400  48003000          DCW      0x4800,0x3000
000404  00000000          DCW      0x0000,0x0000
000408  00002200          DCW      0x0000,0x2200
00040c  24002800          DCW      0x2400,0x2800
000410  28003800          DCW      0x2800,0x3800
000414  28002400          DCW      0x2800,0x2400
000418  24002200          DCW      0x2400,0x2200
00041c  00000000          DCW      0x0000,0x0000
000420  00002000          DCW      0x0000,0x2000
000424  20002000          DCW      0x2000,0x2000
000428  20002000          DCW      0x2000,0x2000
00042c  20002000          DCW      0x2000,0x2000
000430  20003e00          DCW      0x2000,0x3e00
000434  00000000          DCW      0x0000,0x0000
000438  00002080          DCW      0x0000,0x2080
00043c  31803180          DCW      0x3180,0x3180
000440  31802a80          DCW      0x3180,0x2a80
000444  2a802a80          DCW      0x2a80,0x2a80
000448  2a802480          DCW      0x2a80,0x2480
00044c  00000000          DCW      0x0000,0x0000
000450  00002100          DCW      0x0000,0x2100
000454  31003100          DCW      0x3100,0x3100
000458  29002900          DCW      0x2900,0x2900
00045c  25002300          DCW      0x2500,0x2300
000460  23002100          DCW      0x2300,0x2100
000464  00000000          DCW      0x0000,0x0000
000468  00000c00          DCW      0x0000,0x0c00
00046c  12002100          DCW      0x1200,0x2100
000470  21002100          DCW      0x2100,0x2100
000474  21002100          DCW      0x2100,0x2100
000478  12000c00          DCW      0x1200,0x0c00
00047c  00000000          DCW      0x0000,0x0000
000480  00003c00          DCW      0x0000,0x3c00
000484  22002200          DCW      0x2200,0x2200
000488  22003c00          DCW      0x2200,0x3c00
00048c  20002000          DCW      0x2000,0x2000
000490  20002000          DCW      0x2000,0x2000
000494  00000000          DCW      0x0000,0x0000
000498  00000c00          DCW      0x0000,0x0c00
00049c  12002100          DCW      0x1200,0x2100
0004a0  21002100          DCW      0x2100,0x2100
0004a4  21002100          DCW      0x2100,0x2100
0004a8  16000d00          DCW      0x1600,0x0d00
0004ac  01000000          DCW      0x0100,0x0000
0004b0  00003e00          DCW      0x0000,0x3e00
0004b4  21002100          DCW      0x2100,0x2100
0004b8  21003e00          DCW      0x2100,0x3e00
0004bc  24002200          DCW      0x2400,0x2200
0004c0  21002080          DCW      0x2100,0x2080
0004c4  00000000          DCW      0x0000,0x0000
0004c8  00001c00          DCW      0x0000,0x1c00
0004cc  22002200          DCW      0x2200,0x2200
0004d0  20001c00          DCW      0x2000,0x1c00
0004d4  02002200          DCW      0x0200,0x2200
0004d8  22001c00          DCW      0x2200,0x1c00
0004dc  00000000          DCW      0x0000,0x0000
0004e0  00003e00          DCW      0x0000,0x3e00
0004e4  08000800          DCW      0x0800,0x0800
0004e8  08000800          DCW      0x0800,0x0800
0004ec  08000800          DCW      0x0800,0x0800
0004f0  08000800          DCW      0x0800,0x0800
0004f4  00000000          DCW      0x0000,0x0000
0004f8  00002100          DCW      0x0000,0x2100
0004fc  21002100          DCW      0x2100,0x2100
000500  21002100          DCW      0x2100,0x2100
000504  21002100          DCW      0x2100,0x2100
000508  12000c00          DCW      0x1200,0x0c00
00050c  00000000          DCW      0x0000,0x0000
000510  00004100          DCW      0x0000,0x4100
000514  41002200          DCW      0x4100,0x2200
000518  22002200          DCW      0x2200,0x2200
00051c  14001400          DCW      0x1400,0x1400
000520  14000800          DCW      0x1400,0x0800
000524  00000000          DCW      0x0000,0x0000
000528  00004440          DCW      0x0000,0x4440
00052c  4a402a40          DCW      0x4a40,0x2a40
000530  2a802a80          DCW      0x2a80,0x2a80
000534  2a802a80          DCW      0x2a80,0x2a80
000538  2a801100          DCW      0x2a80,0x1100
00053c  00000000          DCW      0x0000,0x0000
000540  00004100          DCW      0x0000,0x4100
000544  22001400          DCW      0x2200,0x1400
000548  14000800          DCW      0x1400,0x0800
00054c  14001400          DCW      0x1400,0x1400
000550  22004100          DCW      0x2200,0x4100
000554  00000000          DCW      0x0000,0x0000
000558  00004100          DCW      0x0000,0x4100
00055c  22002200          DCW      0x2200,0x2200
000560  14000800          DCW      0x1400,0x0800
000564  08000800          DCW      0x0800,0x0800
000568  08000800          DCW      0x0800,0x0800
00056c  00000000          DCW      0x0000,0x0000
000570  00007e00          DCW      0x0000,0x7e00
000574  02000400          DCW      0x0200,0x0400
000578  08001000          DCW      0x0800,0x1000
00057c  10002000          DCW      0x1000,0x2000
000580  40007e00          DCW      0x4000,0x7e00
000584  00000000          DCW      0x0000,0x0000
000588  00003000          DCW      0x0000,0x3000
00058c  20002000          DCW      0x2000,0x2000
000590  20002000          DCW      0x2000,0x2000
000594  20002000          DCW      0x2000,0x2000
000598  20002000          DCW      0x2000,0x2000
00059c  20002000          DCW      0x2000,0x2000
0005a0  00004000          DCW      0x0000,0x4000
0005a4  40002000          DCW      0x4000,0x2000
0005a8  20002000          DCW      0x2000,0x2000
0005ac  20002000          DCW      0x2000,0x2000
0005b0  10001000          DCW      0x1000,0x1000
0005b4  00000000          DCW      0x0000,0x0000
0005b8  00006000          DCW      0x0000,0x6000
0005bc  20002000          DCW      0x2000,0x2000
0005c0  20002000          DCW      0x2000,0x2000
0005c4  20002000          DCW      0x2000,0x2000
0005c8  20002000          DCW      0x2000,0x2000
0005cc  20002000          DCW      0x2000,0x2000
0005d0  00001000          DCW      0x0000,0x1000
0005d4  28002800          DCW      0x2800,0x2800
0005d8  28004400          DCW      0x2800,0x4400
0005dc  00000000          DCW      0x0000,0x0000
0005e0  00000000          DCW      0x0000,0x0000
0005e4  00000000          DCW      0x0000,0x0000
0005e8  00000000          DCW      0x0000,0x0000
0005ec  00000000          DCW      0x0000,0x0000
0005f0  00000000          DCW      0x0000,0x0000
0005f4  00000000          DCW      0x0000,0x0000
0005f8  00000000          DCW      0x0000,0x0000
0005fc  00007e00          DCW      0x0000,0x7e00
000600  40002000          DCW      0x4000,0x2000
000604  00000000          DCW      0x0000,0x0000
000608  00000000          DCW      0x0000,0x0000
00060c  00000000          DCW      0x0000,0x0000
000610  00000000          DCW      0x0000,0x0000
000614  00000000          DCW      0x0000,0x0000
000618  00000000          DCW      0x0000,0x0000
00061c  00003800          DCW      0x0000,0x3800
000620  44000400          DCW      0x4400,0x0400
000624  3c004400          DCW      0x3c00,0x4400
000628  44003c00          DCW      0x4400,0x3c00
00062c  00000000          DCW      0x0000,0x0000
000630  00004000          DCW      0x0000,0x4000
000634  40005800          DCW      0x4000,0x5800
000638  64004400          DCW      0x6400,0x4400
00063c  44004400          DCW      0x4400,0x4400
000640  64005800          DCW      0x6400,0x5800
000644  00000000          DCW      0x0000,0x0000
000648  00000000          DCW      0x0000,0x0000
00064c  00003000          DCW      0x0000,0x3000
000650  48004000          DCW      0x4800,0x4000
000654  40004000          DCW      0x4000,0x4000
000658  48003000          DCW      0x4800,0x3000
00065c  00000000          DCW      0x0000,0x0000
000660  00000400          DCW      0x0000,0x0400
000664  04003400          DCW      0x0400,0x3400
000668  4c004400          DCW      0x4c00,0x4400
00066c  44004400          DCW      0x4400,0x4400
000670  4c003400          DCW      0x4c00,0x3400
000674  00000000          DCW      0x0000,0x0000
000678  00000000          DCW      0x0000,0x0000
00067c  00003800          DCW      0x0000,0x3800
000680  44004400          DCW      0x4400,0x4400
000684  7c004000          DCW      0x7c00,0x4000
000688  44003800          DCW      0x4400,0x3800
00068c  00000000          DCW      0x0000,0x0000
000690  00006000          DCW      0x0000,0x6000
000694  4000e000          DCW      0x4000,0xe000
000698  40004000          DCW      0x4000,0x4000
00069c  40004000          DCW      0x4000,0x4000
0006a0  40004000          DCW      0x4000,0x4000
0006a4  00000000          DCW      0x0000,0x0000
0006a8  00000000          DCW      0x0000,0x0000
0006ac  00003400          DCW      0x0000,0x3400
0006b0  4c004400          DCW      0x4c00,0x4400
0006b4  44004400          DCW      0x4400,0x4400
0006b8  4c003400          DCW      0x4c00,0x3400
0006bc  04004400          DCW      0x0400,0x4400
0006c0  00004000          DCW      0x0000,0x4000
0006c4  40005800          DCW      0x4000,0x5800
0006c8  64004400          DCW      0x6400,0x4400
0006cc  44004400          DCW      0x4400,0x4400
0006d0  44004400          DCW      0x4400,0x4400
0006d4  00000000          DCW      0x0000,0x0000
0006d8  00004000          DCW      0x0000,0x4000
0006dc  00004000          DCW      0x0000,0x4000
0006e0  40004000          DCW      0x4000,0x4000
0006e4  40004000          DCW      0x4000,0x4000
0006e8  40004000          DCW      0x4000,0x4000
0006ec  00000000          DCW      0x0000,0x0000
0006f0  00004000          DCW      0x0000,0x4000
0006f4  00004000          DCW      0x0000,0x4000
0006f8  40004000          DCW      0x4000,0x4000
0006fc  40004000          DCW      0x4000,0x4000
000700  40004000          DCW      0x4000,0x4000
000704  40004000          DCW      0x4000,0x4000
000708  00004000          DCW      0x0000,0x4000
00070c  40004800          DCW      0x4000,0x4800
000710  50006000          DCW      0x5000,0x6000
000714  50005000          DCW      0x5000,0x5000
000718  48004800          DCW      0x4800,0x4800
00071c  00000000          DCW      0x0000,0x0000
000720  00004000          DCW      0x0000,0x4000
000724  40004000          DCW      0x4000,0x4000
000728  40004000          DCW      0x4000,0x4000
00072c  40004000          DCW      0x4000,0x4000
000730  40004000          DCW      0x4000,0x4000
000734  00000000          DCW      0x0000,0x0000
000738  00000000          DCW      0x0000,0x0000
00073c  00005200          DCW      0x0000,0x5200
000740  6d004900          DCW      0x6d00,0x4900
000744  49004900          DCW      0x4900,0x4900
000748  49004900          DCW      0x4900,0x4900
00074c  00000000          DCW      0x0000,0x0000
000750  00000000          DCW      0x0000,0x0000
000754  00005800          DCW      0x0000,0x5800
000758  64004400          DCW      0x6400,0x4400
00075c  44004400          DCW      0x4400,0x4400
000760  44004400          DCW      0x4400,0x4400
000764  00000000          DCW      0x0000,0x0000
000768  00000000          DCW      0x0000,0x0000
00076c  00003800          DCW      0x0000,0x3800
000770  44004400          DCW      0x4400,0x4400
000774  44004400          DCW      0x4400,0x4400
000778  44003800          DCW      0x4400,0x3800
00077c  00000000          DCW      0x0000,0x0000
000780  00000000          DCW      0x0000,0x0000
000784  00005800          DCW      0x0000,0x5800
000788  64004400          DCW      0x6400,0x4400
00078c  44004400          DCW      0x4400,0x4400
000790  64005800          DCW      0x6400,0x5800
000794  40004000          DCW      0x4000,0x4000
000798  00000000          DCW      0x0000,0x0000
00079c  00003400          DCW      0x0000,0x3400
0007a0  4c004400          DCW      0x4c00,0x4400
0007a4  44004400          DCW      0x4400,0x4400
0007a8  4c003400          DCW      0x4c00,0x3400
0007ac  04000400          DCW      0x0400,0x0400
0007b0  00000000          DCW      0x0000,0x0000
0007b4  00005000          DCW      0x0000,0x5000
0007b8  60004000          DCW      0x6000,0x4000
0007bc  40004000          DCW      0x4000,0x4000
0007c0  40004000          DCW      0x4000,0x4000
0007c4  00000000          DCW      0x0000,0x0000
0007c8  00000000          DCW      0x0000,0x0000
0007cc  00003000          DCW      0x0000,0x3000
0007d0  48004000          DCW      0x4800,0x4000
0007d4  30000800          DCW      0x3000,0x0800
0007d8  48003000          DCW      0x4800,0x3000
0007dc  00000000          DCW      0x0000,0x0000
0007e0  00004000          DCW      0x0000,0x4000
0007e4  4000e000          DCW      0x4000,0xe000
0007e8  40004000          DCW      0x4000,0x4000
0007ec  40004000          DCW      0x4000,0x4000
0007f0  40006000          DCW      0x4000,0x6000
0007f4  00000000          DCW      0x0000,0x0000
0007f8  00000000          DCW      0x0000,0x0000
0007fc  00004400          DCW      0x0000,0x4400
000800  44004400          DCW      0x4400,0x4400
000804  44004400          DCW      0x4400,0x4400
000808  4c003400          DCW      0x4c00,0x3400
00080c  00000000          DCW      0x0000,0x0000
000810  00000000          DCW      0x0000,0x0000
000814  00004400          DCW      0x0000,0x4400
000818  44002800          DCW      0x4400,0x2800
00081c  28002800          DCW      0x2800,0x2800
000820  28001000          DCW      0x2800,0x1000
000824  00000000          DCW      0x0000,0x0000
000828  00000000          DCW      0x0000,0x0000
00082c  00004900          DCW      0x0000,0x4900
000830  49005500          DCW      0x4900,0x5500
000834  55005500          DCW      0x5500,0x5500
000838  55002200          DCW      0x5500,0x2200
00083c  00000000          DCW      0x0000,0x0000
000840  00000000          DCW      0x0000,0x0000
000844  00004400          DCW      0x0000,0x4400
000848  28002800          DCW      0x2800,0x2800
00084c  10002800          DCW      0x1000,0x2800
000850  28004400          DCW      0x2800,0x4400
000854  00000000          DCW      0x0000,0x0000
000858  00000000          DCW      0x0000,0x0000
00085c  00004400          DCW      0x0000,0x4400
000860  44002800          DCW      0x4400,0x2800
000864  28002800          DCW      0x2800,0x2800
000868  10001000          DCW      0x1000,0x1000
00086c  10001000          DCW      0x1000,0x1000
000870  00000000          DCW      0x0000,0x0000
000874  00007800          DCW      0x0000,0x7800
000878  08001000          DCW      0x0800,0x1000
00087c  20002000          DCW      0x2000,0x2000
000880  40007800          DCW      0x4000,0x7800
000884  00000000          DCW      0x0000,0x0000
000888  00001000          DCW      0x0000,0x1000
00088c  20002000          DCW      0x2000,0x2000
000890  20002000          DCW      0x2000,0x2000
000894  40002000          DCW      0x4000,0x2000
000898  20002000          DCW      0x2000,0x2000
00089c  20002000          DCW      0x2000,0x2000
0008a0  00002000          DCW      0x0000,0x2000
0008a4  20002000          DCW      0x2000,0x2000
0008a8  20002000          DCW      0x2000,0x2000
0008ac  20002000          DCW      0x2000,0x2000
0008b0  20002000          DCW      0x2000,0x2000
0008b4  20002000          DCW      0x2000,0x2000
0008b8  00004000          DCW      0x0000,0x4000
0008bc  20002000          DCW      0x2000,0x2000
0008c0  20002000          DCW      0x2000,0x2000
0008c4  10002000          DCW      0x1000,0x2000
0008c8  20002000          DCW      0x2000,0x2000
0008cc  20002000          DCW      0x2000,0x2000
0008d0  00000000          DCW      0x0000,0x0000
0008d4  00000000          DCW      0x0000,0x0000
0008d8  74005800          DCW      0x7400,0x5800
0008dc  00000000          DCW      0x0000,0x0000
0008e0  00000000          DCW      0x0000,0x0000
0008e4  00000000          DCW      0x0000,0x0000
0008e8  00000000          DCW      0x0000,0x0000
0008ec  70005000          DCW      0x7000,0x5000
0008f0  50005000          DCW      0x5000,0x5000
0008f4  50005000          DCW      0x5000,0x5000
0008f8  50007000          DCW      0x5000,0x7000
0008fc  00000000          DCW      0x0000,0x0000

                          AREA ||area_number.47||, DATA, READONLY, ALIGN=1

                          EXPORTAS ||area_number.47||, ||.constdata||
                  ASCII8x12_Table
000000  00000000          DCW      0x0000,0x0000
000004  00000000          DCW      0x0000,0x0000
000008  00000000          DCW      0x0000,0x0000
00000c  00000000          DCW      0x0000,0x0000
000010  00000000          DCW      0x0000,0x0000
000014  00000000          DCW      0x0000,0x0000
000018  00000000          DCW      0x0000,0x0000
00001c  00000010          DCW      0x0000,0x0010
000020  00100010          DCW      0x0010,0x0010
000024  00100010          DCW      0x0010,0x0010
000028  00100000          DCW      0x0010,0x0000
00002c  00100000          DCW      0x0010,0x0000
000030  00000000          DCW      0x0000,0x0000
000034  00000028          DCW      0x0000,0x0028
000038  00280028          DCW      0x0028,0x0028
00003c  00000000          DCW      0x0000,0x0000
000040  00000000          DCW      0x0000,0x0000
000044  00000000          DCW      0x0000,0x0000
000048  00000000          DCW      0x0000,0x0000
00004c  00000014          DCW      0x0000,0x0014
000050  0014003e          DCW      0x0014,0x003e
000054  00140028          DCW      0x0014,0x0028
000058  007c0028          DCW      0x007c,0x0028
00005c  00280000          DCW      0x0028,0x0000
000060  00000000          DCW      0x0000,0x0000
000064  00100038          DCW      0x0010,0x0038
000068  00540050          DCW      0x0054,0x0050
00006c  00380014          DCW      0x0038,0x0014
000070  00140054          DCW      0x0014,0x0054
000074  00380010          DCW      0x0038,0x0010
000078  00000000          DCW      0x0000,0x0000
00007c  00000044          DCW      0x0000,0x0044
000080  00a800a8          DCW      0x00a8,0x00a8
000084  00500014          DCW      0x0050,0x0014
000088  001a002a          DCW      0x001a,0x002a
00008c  00240000          DCW      0x0024,0x0000
000090  00000000          DCW      0x0000,0x0000
000094  00000020          DCW      0x0000,0x0020
000098  00500050          DCW      0x0050,0x0050
00009c  002000e8          DCW      0x0020,0x00e8
0000a0  00980098          DCW      0x0098,0x0098
0000a4  00600000          DCW      0x0060,0x0000
0000a8  00000000          DCW      0x0000,0x0000
0000ac  00000080          DCW      0x0000,0x0080
0000b0  00800080          DCW      0x0080,0x0080
0000b4  00000000          DCW      0x0000,0x0000
0000b8  00000000          DCW      0x0000,0x0000
0000bc  00000000          DCW      0x0000,0x0000
0000c0  00000000          DCW      0x0000,0x0000
0000c4  00000040          DCW      0x0000,0x0040
0000c8  00800080          DCW      0x0080,0x0080
0000cc  00800080          DCW      0x0080,0x0080
0000d0  00800080          DCW      0x0080,0x0080
0000d4  00800080          DCW      0x0080,0x0080
0000d8  00000000          DCW      0x0000,0x0000
0000dc  00000080          DCW      0x0000,0x0080
0000e0  00400040          DCW      0x0040,0x0040
0000e4  00400040          DCW      0x0040,0x0040
0000e8  00400040          DCW      0x0040,0x0040
0000ec  00400040          DCW      0x0040,0x0040
0000f0  00000000          DCW      0x0000,0x0000
0000f4  00000040          DCW      0x0000,0x0040
0000f8  00e00040          DCW      0x00e0,0x0040
0000fc  00a00000          DCW      0x00a0,0x0000
000100  00000000          DCW      0x0000,0x0000
000104  00000000          DCW      0x0000,0x0000
000108  00000000          DCW      0x0000,0x0000
00010c  00000000          DCW      0x0000,0x0000
000110  00000020          DCW      0x0000,0x0020
000114  002000f8          DCW      0x0020,0x00f8
000118  00200020          DCW      0x0020,0x0020
00011c  00000000          DCW      0x0000,0x0000
000120  00000000          DCW      0x0000,0x0000
000124  00000000          DCW      0x0000,0x0000
000128  00000000          DCW      0x0000,0x0000
00012c  00000000          DCW      0x0000,0x0000
000130  00000000          DCW      0x0000,0x0000
000134  00400040          DCW      0x0040,0x0040
000138  00000000          DCW      0x0000,0x0000
00013c  00000000          DCW      0x0000,0x0000
000140  00000000          DCW      0x0000,0x0000
000144  00000000          DCW      0x0000,0x0000
000148  00c00000          DCW      0x00c0,0x0000
00014c  00000000          DCW      0x0000,0x0000
000150  00000000          DCW      0x0000,0x0000
000154  00000000          DCW      0x0000,0x0000
000158  00000000          DCW      0x0000,0x0000
00015c  00000000          DCW      0x0000,0x0000
000160  00000000          DCW      0x0000,0x0000
000164  00400000          DCW      0x0040,0x0000
000168  00000000          DCW      0x0000,0x0000
00016c  00000020          DCW      0x0000,0x0020
000170  00200020          DCW      0x0020,0x0020
000174  00400040          DCW      0x0040,0x0040
000178  00800080          DCW      0x0080,0x0080
00017c  00800000          DCW      0x0080,0x0000
000180  00000000          DCW      0x0000,0x0000
000184  00000060          DCW      0x0000,0x0060
000188  00900090          DCW      0x0090,0x0090
00018c  00900090          DCW      0x0090,0x0090
000190  00900090          DCW      0x0090,0x0090
000194  00600000          DCW      0x0060,0x0000
000198  00000000          DCW      0x0000,0x0000
00019c  00000020          DCW      0x0000,0x0020
0001a0  006000a0          DCW      0x0060,0x00a0
0001a4  00200020          DCW      0x0020,0x0020
0001a8  00200020          DCW      0x0020,0x0020
0001ac  00200000          DCW      0x0020,0x0000
0001b0  00000000          DCW      0x0000,0x0000
0001b4  00000060          DCW      0x0000,0x0060
0001b8  00900010          DCW      0x0090,0x0010
0001bc  00100020          DCW      0x0010,0x0020
0001c0  00400080          DCW      0x0040,0x0080
0001c4  00f00000          DCW      0x00f0,0x0000
0001c8  00000000          DCW      0x0000,0x0000
0001cc  00000060          DCW      0x0000,0x0060
0001d0  00900010          DCW      0x0090,0x0010
0001d4  00600010          DCW      0x0060,0x0010
0001d8  00100090          DCW      0x0010,0x0090
0001dc  00600000          DCW      0x0060,0x0000
0001e0  00000000          DCW      0x0000,0x0000
0001e4  00000010          DCW      0x0000,0x0010
0001e8  00300050          DCW      0x0030,0x0050
0001ec  00500090          DCW      0x0050,0x0090
0001f0  00f80010          DCW      0x00f8,0x0010
0001f4  00100000          DCW      0x0010,0x0000
0001f8  00000000          DCW      0x0000,0x0000
0001fc  00000070          DCW      0x0000,0x0070
000200  00400080          DCW      0x0040,0x0080
000204  00e00010          DCW      0x00e0,0x0010
000208  00100090          DCW      0x0010,0x0090
00020c  00600000          DCW      0x0060,0x0000
000210  00000000          DCW      0x0000,0x0000
000214  00000060          DCW      0x0000,0x0060
000218  00900080          DCW      0x0090,0x0080
00021c  00a000d0          DCW      0x00a0,0x00d0
000220  00900090          DCW      0x0090,0x0090
000224  00600000          DCW      0x0060,0x0000
000228  00000000          DCW      0x0000,0x0000
00022c  000000f0          DCW      0x0000,0x00f0
000230  00100020          DCW      0x0010,0x0020
000234  00200020          DCW      0x0020,0x0020
000238  00400040          DCW      0x0040,0x0040
00023c  00400000          DCW      0x0040,0x0000
000240  00000000          DCW      0x0000,0x0000
000244  00000060          DCW      0x0000,0x0060
000248  00900090          DCW      0x0090,0x0090
00024c  00600090          DCW      0x0060,0x0090
000250  00900090          DCW      0x0090,0x0090
000254  00600000          DCW      0x0060,0x0000
000258  00000000          DCW      0x0000,0x0000
00025c  00000060          DCW      0x0000,0x0060
000260  00900090          DCW      0x0090,0x0090
000264  00b00050          DCW      0x00b0,0x0050
000268  00100090          DCW      0x0010,0x0090
00026c  00600000          DCW      0x0060,0x0000
000270  00000000          DCW      0x0000,0x0000
000274  00000000          DCW      0x0000,0x0000
000278  00000040          DCW      0x0000,0x0040
00027c  00000000          DCW      0x0000,0x0000
000280  00000000          DCW      0x0000,0x0000
000284  00400000          DCW      0x0040,0x0000
000288  00000000          DCW      0x0000,0x0000
00028c  00000000          DCW      0x0000,0x0000
000290  00000040          DCW      0x0000,0x0040
000294  00000000          DCW      0x0000,0x0000
000298  00000000          DCW      0x0000,0x0000
00029c  00400040          DCW      0x0040,0x0040
0002a0  00000000          DCW      0x0000,0x0000
0002a4  00000000          DCW      0x0000,0x0000
0002a8  00000010          DCW      0x0000,0x0010
0002ac  00600080          DCW      0x0060,0x0080
0002b0  00600010          DCW      0x0060,0x0010
0002b4  00000000          DCW      0x0000,0x0000
0002b8  00000000          DCW      0x0000,0x0000
0002bc  00000000          DCW      0x0000,0x0000
0002c0  00000000          DCW      0x0000,0x0000
0002c4  00f00000          DCW      0x00f0,0x0000
0002c8  00f00000          DCW      0x00f0,0x0000
0002cc  00000000          DCW      0x0000,0x0000
0002d0  00000000          DCW      0x0000,0x0000
0002d4  00000000          DCW      0x0000,0x0000
0002d8  00000080          DCW      0x0000,0x0080
0002dc  00600010          DCW      0x0060,0x0010
0002e0  00600080          DCW      0x0060,0x0080
0002e4  00000000          DCW      0x0000,0x0000
0002e8  00000000          DCW      0x0000,0x0000
0002ec  00000060          DCW      0x0000,0x0060
0002f0  00900010          DCW      0x0090,0x0010
0002f4  00200040          DCW      0x0020,0x0040
0002f8  00400000          DCW      0x0040,0x0000
0002fc  00400000          DCW      0x0040,0x0000
000300  00000000          DCW      0x0000,0x0000
000304  0000001c          DCW      0x0000,0x001c
000308  0022005b          DCW      0x0022,0x005b
00030c  00a500a5          DCW      0x00a5,0x00a5
000310  00a500a5          DCW      0x00a5,0x00a5
000314  009e0041          DCW      0x009e,0x0041
000318  00000000          DCW      0x0000,0x0000
00031c  00000020          DCW      0x0000,0x0020
000320  00500050          DCW      0x0050,0x0050
000324  00500050          DCW      0x0050,0x0050
000328  00700088          DCW      0x0070,0x0088
00032c  00880000          DCW      0x0088,0x0000
000330  00000000          DCW      0x0000,0x0000
000334  000000f0          DCW      0x0000,0x00f0
000338  00880088          DCW      0x0088,0x0088
00033c  00f00088          DCW      0x00f0,0x0088
000340  00880088          DCW      0x0088,0x0088
000344  00f00000          DCW      0x00f0,0x0000
000348  00000000          DCW      0x0000,0x0000
00034c  00000038          DCW      0x0000,0x0038
000350  00440084          DCW      0x0044,0x0084
000354  00800080          DCW      0x0080,0x0080
000358  00840044          DCW      0x0084,0x0044
00035c  00380000          DCW      0x0038,0x0000
000360  00000000          DCW      0x0000,0x0000
000364  000000e0          DCW      0x0000,0x00e0
000368  00900088          DCW      0x0090,0x0088
00036c  00880088          DCW      0x0088,0x0088
000370  00880090          DCW      0x0088,0x0090
000374  00e00000          DCW      0x00e0,0x0000
000378  00000000          DCW      0x0000,0x0000
00037c  000000f8          DCW      0x0000,0x00f8
000380  00800080          DCW      0x0080,0x0080
000384  00f80080          DCW      0x00f8,0x0080
000388  00800080          DCW      0x0080,0x0080
00038c  00f80000          DCW      0x00f8,0x0000
000390  00000000          DCW      0x0000,0x0000
000394  00000078          DCW      0x0000,0x0078
000398  00400040          DCW      0x0040,0x0040
00039c  00700040          DCW      0x0070,0x0040
0003a0  00400040          DCW      0x0040,0x0040
0003a4  00400000          DCW      0x0040,0x0000
0003a8  00000000          DCW      0x0000,0x0000
0003ac  00000038          DCW      0x0000,0x0038
0003b0  00440084          DCW      0x0044,0x0084
0003b4  0080009c          DCW      0x0080,0x009c
0003b8  00840044          DCW      0x0084,0x0044
0003bc  00380000          DCW      0x0038,0x0000
0003c0  00000000          DCW      0x0000,0x0000
0003c4  00000088          DCW      0x0000,0x0088
0003c8  00880088          DCW      0x0088,0x0088
0003cc  00f80088          DCW      0x00f8,0x0088
0003d0  00880088          DCW      0x0088,0x0088
0003d4  00880000          DCW      0x0088,0x0000
0003d8  00000000          DCW      0x0000,0x0000
0003dc  00000080          DCW      0x0000,0x0080
0003e0  00800080          DCW      0x0080,0x0080
0003e4  00800080          DCW      0x0080,0x0080
0003e8  00800080          DCW      0x0080,0x0080
0003ec  00800000          DCW      0x0080,0x0000
0003f0  00000000          DCW      0x0000,0x0000
0003f4  00000010          DCW      0x0000,0x0010
0003f8  00100010          DCW      0x0010,0x0010
0003fc  00100010          DCW      0x0010,0x0010
000400  00900090          DCW      0x0090,0x0090
000404  00600000          DCW      0x0060,0x0000
000408  00000000          DCW      0x0000,0x0000
00040c  00000088          DCW      0x0000,0x0088
000410  009000a0          DCW      0x0090,0x00a0
000414  00e000a0          DCW      0x00e0,0x00a0
000418  00900090          DCW      0x0090,0x0090
00041c  00880000          DCW      0x0088,0x0000
000420  00000000          DCW      0x0000,0x0000
000424  00000080          DCW      0x0000,0x0080
000428  00800080          DCW      0x0080,0x0080
00042c  00800080          DCW      0x0080,0x0080
000430  00800080          DCW      0x0080,0x0080
000434  00f00000          DCW      0x00f0,0x0000
000438  00000000          DCW      0x0000,0x0000
00043c  00000082          DCW      0x0000,0x0082
000440  00c600c6          DCW      0x00c6,0x00c6
000444  00aa00aa          DCW      0x00aa,0x00aa
000448  00aa00aa          DCW      0x00aa,0x00aa
00044c  00920000          DCW      0x0092,0x0000
000450  00000000          DCW      0x0000,0x0000
000454  00000084          DCW      0x0000,0x0084
000458  00c400a4          DCW      0x00c4,0x00a4
00045c  00a40094          DCW      0x00a4,0x0094
000460  0094008c          DCW      0x0094,0x008c
000464  00840000          DCW      0x0084,0x0000
000468  00000000          DCW      0x0000,0x0000
00046c  00000030          DCW      0x0000,0x0030
000470  00480084          DCW      0x0048,0x0084
000474  00840084          DCW      0x0084,0x0084
000478  00840048          DCW      0x0084,0x0048
00047c  00300000          DCW      0x0030,0x0000
000480  00000000          DCW      0x0000,0x0000
000484  000000f0          DCW      0x0000,0x00f0
000488  00880088          DCW      0x0088,0x0088
00048c  008800f0          DCW      0x0088,0x00f0
000490  00800080          DCW      0x0080,0x0080
000494  00800000          DCW      0x0080,0x0000
000498  00000000          DCW      0x0000,0x0000
00049c  00000030          DCW      0x0000,0x0030
0004a0  00480084          DCW      0x0048,0x0084
0004a4  00840084          DCW      0x0084,0x0084
0004a8  00840058          DCW      0x0084,0x0058
0004ac  00340004          DCW      0x0034,0x0004
0004b0  00000000          DCW      0x0000,0x0000
0004b4  00000078          DCW      0x0000,0x0078
0004b8  00440044          DCW      0x0044,0x0044
0004bc  00780050          DCW      0x0078,0x0050
0004c0  00480044          DCW      0x0048,0x0044
0004c4  00420000          DCW      0x0042,0x0000
0004c8  00000000          DCW      0x0000,0x0000
0004cc  00000070          DCW      0x0000,0x0070
0004d0  00880080          DCW      0x0088,0x0080
0004d4  00700008          DCW      0x0070,0x0008
0004d8  00880088          DCW      0x0088,0x0088
0004dc  00700000          DCW      0x0070,0x0000
0004e0  00000000          DCW      0x0000,0x0000
0004e4  000000f8          DCW      0x0000,0x00f8
0004e8  00200020          DCW      0x0020,0x0020
0004ec  00200020          DCW      0x0020,0x0020
0004f0  00200020          DCW      0x0020,0x0020
0004f4  00200000          DCW      0x0020,0x0000
0004f8  00000000          DCW      0x0000,0x0000
0004fc  00000084          DCW      0x0000,0x0084
000500  00840084          DCW      0x0084,0x0084
000504  00840084          DCW      0x0084,0x0084
000508  00840048          DCW      0x0084,0x0048
00050c  00300000          DCW      0x0030,0x0000
000510  00000000          DCW      0x0000,0x0000
000514  00000088          DCW      0x0000,0x0088
000518  00880050          DCW      0x0088,0x0050
00051c  00500050          DCW      0x0050,0x0050
000520  00500050          DCW      0x0050,0x0050
000524  00200000          DCW      0x0020,0x0000
000528  00000000          DCW      0x0000,0x0000
00052c  00000092          DCW      0x0000,0x0092
000530  00aa00aa          DCW      0x00aa,0x00aa
000534  00aa00aa          DCW      0x00aa,0x00aa
000538  00aa00aa          DCW      0x00aa,0x00aa
00053c  00440000          DCW      0x0044,0x0000
000540  00000000          DCW      0x0000,0x0000
000544  00000084          DCW      0x0000,0x0084
000548  00480048          DCW      0x0048,0x0048
00054c  00300030          DCW      0x0030,0x0030
000550  00480048          DCW      0x0048,0x0048
000554  00840000          DCW      0x0084,0x0000
000558  00000000          DCW      0x0000,0x0000
00055c  00000088          DCW      0x0000,0x0088
000560  00500050          DCW      0x0050,0x0050
000564  00200020          DCW      0x0020,0x0020
000568  00200020          DCW      0x0020,0x0020
00056c  00200000          DCW      0x0020,0x0000
000570  00000000          DCW      0x0000,0x0000
000574  000000f8          DCW      0x0000,0x00f8
000578  00080010          DCW      0x0008,0x0010
00057c  00200020          DCW      0x0020,0x0020
000580  00400080          DCW      0x0040,0x0080
000584  00f80000          DCW      0x00f8,0x0000
000588  00000000          DCW      0x0000,0x0000
00058c  000000c0          DCW      0x0000,0x00c0
000590  00800080          DCW      0x0080,0x0080
000594  00800080          DCW      0x0080,0x0080
000598  00800080          DCW      0x0080,0x0080
00059c  00800080          DCW      0x0080,0x0080
0005a0  00000000          DCW      0x0000,0x0000
0005a4  00000080          DCW      0x0000,0x0080
0005a8  00800040          DCW      0x0080,0x0040
0005ac  00400040          DCW      0x0040,0x0040
0005b0  00400020          DCW      0x0040,0x0020
0005b4  00200000          DCW      0x0020,0x0000
0005b8  00000000          DCW      0x0000,0x0000
0005bc  000000c0          DCW      0x0000,0x00c0
0005c0  00400040          DCW      0x0040,0x0040
0005c4  00400040          DCW      0x0040,0x0040
0005c8  00400040          DCW      0x0040,0x0040
0005cc  00400040          DCW      0x0040,0x0040
0005d0  00000000          DCW      0x0000,0x0000
0005d4  00000040          DCW      0x0000,0x0040
0005d8  00a000a0          DCW      0x00a0,0x00a0
0005dc  00a00000          DCW      0x00a0,0x0000
0005e0  00000000          DCW      0x0000,0x0000
0005e4  00000000          DCW      0x0000,0x0000
0005e8  00000000          DCW      0x0000,0x0000
0005ec  00000000          DCW      0x0000,0x0000
0005f0  00000000          DCW      0x0000,0x0000
0005f4  00000000          DCW      0x0000,0x0000
0005f8  00000000          DCW      0x0000,0x0000
0005fc  000000f8          DCW      0x0000,0x00f8
000600  00000000          DCW      0x0000,0x0000
000604  00000080          DCW      0x0000,0x0080
000608  00400000          DCW      0x0040,0x0000
00060c  00000000          DCW      0x0000,0x0000
000610  00000000          DCW      0x0000,0x0000
000614  00000000          DCW      0x0000,0x0000
000618  00000000          DCW      0x0000,0x0000
00061c  00000000          DCW      0x0000,0x0000
000620  000000e0          DCW      0x0000,0x00e0
000624  00100070          DCW      0x0010,0x0070
000628  00900090          DCW      0x0090,0x0090
00062c  00700000          DCW      0x0070,0x0000
000630  00000000          DCW      0x0000,0x0000
000634  00000080          DCW      0x0000,0x0080
000638  008000a0          DCW      0x0080,0x00a0
00063c  00d00090          DCW      0x00d0,0x0090
000640  009000d0          DCW      0x0090,0x00d0
000644  00a00000          DCW      0x00a0,0x0000
000648  00000000          DCW      0x0000,0x0000
00064c  00000000          DCW      0x0000,0x0000
000650  00000060          DCW      0x0000,0x0060
000654  00900080          DCW      0x0090,0x0080
000658  00800090          DCW      0x0080,0x0090
00065c  00600000          DCW      0x0060,0x0000
000660  00000000          DCW      0x0000,0x0000
000664  00000010          DCW      0x0000,0x0010
000668  00100050          DCW      0x0010,0x0050
00066c  00b00090          DCW      0x00b0,0x0090
000670  009000b0          DCW      0x0090,0x00b0
000674  00500000          DCW      0x0050,0x0000
000678  00000000          DCW      0x0000,0x0000
00067c  00000000          DCW      0x0000,0x0000
000680  00000060          DCW      0x0000,0x0060
000684  009000f0          DCW      0x0090,0x00f0
000688  00800090          DCW      0x0080,0x0090
00068c  00600000          DCW      0x0060,0x0000
000690  00000000          DCW      0x0000,0x0000
000694  000000c0          DCW      0x0000,0x00c0
000698  008000c0          DCW      0x0080,0x00c0
00069c  00800080          DCW      0x0080,0x0080
0006a0  00800080          DCW      0x0080,0x0080
0006a4  00800000          DCW      0x0080,0x0000
0006a8  00000000          DCW      0x0000,0x0000
0006ac  00000000          DCW      0x0000,0x0000
0006b0  00000050          DCW      0x0000,0x0050
0006b4  00b00090          DCW      0x00b0,0x0090
0006b8  009000b0          DCW      0x0090,0x00b0
0006bc  00500010          DCW      0x0050,0x0010
0006c0  00000000          DCW      0x0000,0x0000
0006c4  00000080          DCW      0x0000,0x0080
0006c8  008000a0          DCW      0x0080,0x00a0
0006cc  00d00090          DCW      0x00d0,0x0090
0006d0  00900090          DCW      0x0090,0x0090
0006d4  00900000          DCW      0x0090,0x0000
0006d8  00000000          DCW      0x0000,0x0000
0006dc  00000080          DCW      0x0000,0x0080
0006e0  00000080          DCW      0x0000,0x0080
0006e4  00800080          DCW      0x0080,0x0080
0006e8  00800080          DCW      0x0080,0x0080
0006ec  00800000          DCW      0x0080,0x0000
0006f0  00000000          DCW      0x0000,0x0000
0006f4  00000080          DCW      0x0000,0x0080
0006f8  00000080          DCW      0x0000,0x0080
0006fc  00800080          DCW      0x0080,0x0080
000700  00800080          DCW      0x0080,0x0080
000704  00800080          DCW      0x0080,0x0080
000708  00000000          DCW      0x0000,0x0000
00070c  00000080          DCW      0x0000,0x0080
000710  00800090          DCW      0x0080,0x0090
000714  00a000c0          DCW      0x00a0,0x00c0
000718  00a00090          DCW      0x00a0,0x0090
00071c  00900000          DCW      0x0090,0x0000
000720  00000000          DCW      0x0000,0x0000
000724  00000080          DCW      0x0000,0x0080
000728  00800080          DCW      0x0080,0x0080
00072c  00800080          DCW      0x0080,0x0080
000730  00800080          DCW      0x0080,0x0080
000734  00800000          DCW      0x0080,0x0000
000738  00000000          DCW      0x0000,0x0000
00073c  00000000          DCW      0x0000,0x0000
000740  000000a6          DCW      0x0000,0x00a6
000744  00da0092          DCW      0x00da,0x0092
000748  00920092          DCW      0x0092,0x0092
00074c  00920000          DCW      0x0092,0x0000
000750  00000000          DCW      0x0000,0x0000
000754  00000000          DCW      0x0000,0x0000
000758  000000a0          DCW      0x0000,0x00a0
00075c  00d00090          DCW      0x00d0,0x0090
000760  00900090          DCW      0x0090,0x0090
000764  00900000          DCW      0x0090,0x0000
000768  00000000          DCW      0x0000,0x0000
00076c  00000000          DCW      0x0000,0x0000
000770  00000060          DCW      0x0000,0x0060
000774  00900090          DCW      0x0090,0x0090
000778  00900090          DCW      0x0090,0x0090
00077c  00600000          DCW      0x0060,0x0000
000780  00000000          DCW      0x0000,0x0000
000784  00000000          DCW      0x0000,0x0000
000788  000000a0          DCW      0x0000,0x00a0
00078c  00d00090          DCW      0x00d0,0x0090
000790  009000d0          DCW      0x0090,0x00d0
000794  00a00080          DCW      0x00a0,0x0080
000798  00000000          DCW      0x0000,0x0000
00079c  00000000          DCW      0x0000,0x0000
0007a0  00000050          DCW      0x0000,0x0050
0007a4  00b00090          DCW      0x00b0,0x0090
0007a8  009000b0          DCW      0x0090,0x00b0
0007ac  00500010          DCW      0x0050,0x0010
0007b0  00000000          DCW      0x0000,0x0000
0007b4  00000000          DCW      0x0000,0x0000
0007b8  000000a0          DCW      0x0000,0x00a0
0007bc  00c00080          DCW      0x00c0,0x0080
0007c0  00800080          DCW      0x0080,0x0080
0007c4  00800000          DCW      0x0080,0x0000
0007c8  00000000          DCW      0x0000,0x0000
0007cc  00000000          DCW      0x0000,0x0000
0007d0  000000e0          DCW      0x0000,0x00e0
0007d4  00900040          DCW      0x0090,0x0040
0007d8  00200090          DCW      0x0020,0x0090
0007dc  00600000          DCW      0x0060,0x0000
0007e0  00000000          DCW      0x0000,0x0000
0007e4  00000080          DCW      0x0000,0x0080
0007e8  008000c0          DCW      0x0080,0x00c0
0007ec  00800080          DCW      0x0080,0x0080
0007f0  00800080          DCW      0x0080,0x0080
0007f4  00c00000          DCW      0x00c0,0x0000
0007f8  00000000          DCW      0x0000,0x0000
0007fc  00000000          DCW      0x0000,0x0000
000800  00000090          DCW      0x0000,0x0090
000804  00900090          DCW      0x0090,0x0090
000808  009000b0          DCW      0x0090,0x00b0
00080c  00500000          DCW      0x0050,0x0000
000810  00000000          DCW      0x0000,0x0000
000814  00000000          DCW      0x0000,0x0000
000818  00000088          DCW      0x0000,0x0088
00081c  00880050          DCW      0x0088,0x0050
000820  00500050          DCW      0x0050,0x0050
000824  00200000          DCW      0x0020,0x0000
000828  00000000          DCW      0x0000,0x0000
00082c  00000000          DCW      0x0000,0x0000
000830  00000092          DCW      0x0000,0x0092
000834  00aa00aa          DCW      0x00aa,0x00aa
000838  00aa00aa          DCW      0x00aa,0x00aa
00083c  00440000          DCW      0x0044,0x0000
000840  00000000          DCW      0x0000,0x0000
000844  00000000          DCW      0x0000,0x0000
000848  00000088          DCW      0x0000,0x0088
00084c  00500020          DCW      0x0050,0x0020
000850  00200050          DCW      0x0020,0x0050
000854  00880000          DCW      0x0088,0x0000
000858  00000000          DCW      0x0000,0x0000
00085c  00000000          DCW      0x0000,0x0000
000860  00000088          DCW      0x0000,0x0088
000864  00500050          DCW      0x0050,0x0050
000868  00500020          DCW      0x0050,0x0020
00086c  00200020          DCW      0x0020,0x0020
000870  00000000          DCW      0x0000,0x0000
000874  00000000          DCW      0x0000,0x0000
000878  000000f0          DCW      0x0000,0x00f0
00087c  00100020          DCW      0x0010,0x0020
000880  00400080          DCW      0x0040,0x0080
000884  00f00000          DCW      0x00f0,0x0000
000888  00000000          DCW      0x0000,0x0000
00088c  000000c0          DCW      0x0000,0x00c0
000890  00800080          DCW      0x0080,0x0080
000894  00800000          DCW      0x0080,0x0000
000898  00800080          DCW      0x0080,0x0080
00089c  00800080          DCW      0x0080,0x0080
0008a0  00000000          DCW      0x0000,0x0000
0008a4  00000080          DCW      0x0000,0x0080
0008a8  00800080          DCW      0x0080,0x0080
0008ac  00800080          DCW      0x0080,0x0080
0008b0  00800080          DCW      0x0080,0x0080
0008b4  00800080          DCW      0x0080,0x0080
0008b8  00000000          DCW      0x0000,0x0000
0008bc  000000c0          DCW      0x0000,0x00c0
0008c0  00400040          DCW      0x0040,0x0040
0008c4  00400020          DCW      0x0040,0x0020
0008c8  00400040          DCW      0x0040,0x0040
0008cc  00400040          DCW      0x0040,0x0040
0008d0  00000000          DCW      0x0000,0x0000
0008d4  00000000          DCW      0x0000,0x0000
0008d8  00000000          DCW      0x0000,0x0000
0008dc  00e800b0          DCW      0x00e8,0x00b0
0008e0  00000000          DCW      0x0000,0x0000
0008e4  00000000          DCW      0x0000,0x0000
0008e8  00000000          DCW      0x0000,0x0000
0008ec  00000000          DCW      0x0000,0x0000
0008f0  00e000a0          DCW      0x00e0,0x00a0
0008f4  00a000a0          DCW      0x00a0,0x00a0
0008f8  00a000a0          DCW      0x00a0,0x00a0
0008fc  00e00000          DCW      0x00e0,0x0000

                          AREA ||area_number.48||, DATA, READONLY, ALIGN=1

                          EXPORTAS ||area_number.48||, ||.constdata||
                  ASCII8x8_Table
000000  00000000          DCW      0x0000,0x0000
000004  00000000          DCW      0x0000,0x0000
000008  00000000          DCW      0x0000,0x0000
00000c  00000000          DCW      0x0000,0x0000
000010  00400040          DCW      0x0040,0x0040
000014  00400040          DCW      0x0040,0x0040
000018  00400040          DCW      0x0040,0x0040
00001c  00000040          DCW      0x0000,0x0040
000020  00a000a0          DCW      0x00a0,0x00a0
000024  00a00000          DCW      0x00a0,0x0000
000028  00000000          DCW      0x0000,0x0000
00002c  00000000          DCW      0x0000,0x0000
000030  00000024          DCW      0x0000,0x0024
000034  002400fe          DCW      0x0024,0x00fe
000038  004800fc          DCW      0x0048,0x00fc
00003c  00480048          DCW      0x0048,0x0048
000040  00380054          DCW      0x0038,0x0054
000044  00500038          DCW      0x0050,0x0038
000048  00140014          DCW      0x0014,0x0014
00004c  00540038          DCW      0x0054,0x0038
000050  004400a8          DCW      0x0044,0x00a8
000054  00a80050          DCW      0x00a8,0x0050
000058  0014001a          DCW      0x0014,0x001a
00005c  002a0024          DCW      0x002a,0x0024
000060  00100028          DCW      0x0010,0x0028
000064  00280010          DCW      0x0028,0x0010
000068  0074004c          DCW      0x0074,0x004c
00006c  004c0030          DCW      0x004c,0x0030
000070  00100010          DCW      0x0010,0x0010
000074  00100000          DCW      0x0010,0x0000
000078  00000000          DCW      0x0000,0x0000
00007c  00000000          DCW      0x0000,0x0000
000080  00080010          DCW      0x0008,0x0010
000084  00100010          DCW      0x0010,0x0010
000088  00100010          DCW      0x0010,0x0010
00008c  00100008          DCW      0x0010,0x0008
000090  00100008          DCW      0x0010,0x0008
000094  00080008          DCW      0x0008,0x0008
000098  00080008          DCW      0x0008,0x0008
00009c  00080010          DCW      0x0008,0x0010
0000a0  00000000          DCW      0x0000,0x0000
0000a4  00240018          DCW      0x0024,0x0018
0000a8  003c0018          DCW      0x003c,0x0018
0000ac  00240000          DCW      0x0024,0x0000
0000b0  00000000          DCW      0x0000,0x0000
0000b4  00100010          DCW      0x0010,0x0010
0000b8  007c0010          DCW      0x007c,0x0010
0000bc  00100000          DCW      0x0010,0x0000
0000c0  00000000          DCW      0x0000,0x0000
0000c4  00000000          DCW      0x0000,0x0000
0000c8  00000008          DCW      0x0000,0x0008
0000cc  00080010          DCW      0x0008,0x0010
0000d0  00000000          DCW      0x0000,0x0000
0000d4  00000000          DCW      0x0000,0x0000
0000d8  003c0000          DCW      0x003c,0x0000
0000dc  00000000          DCW      0x0000,0x0000
0000e0  00000000          DCW      0x0000,0x0000
0000e4  00000000          DCW      0x0000,0x0000
0000e8  00000000          DCW      0x0000,0x0000
0000ec  00180018          DCW      0x0018,0x0018
0000f0  00080008          DCW      0x0008,0x0008
0000f4  00080010          DCW      0x0008,0x0010
0000f8  00100020          DCW      0x0010,0x0020
0000fc  00200020          DCW      0x0020,0x0020
000100  00180024          DCW      0x0018,0x0024
000104  00240024          DCW      0x0024,0x0024
000108  00240024          DCW      0x0024,0x0024
00010c  00240018          DCW      0x0024,0x0018
000110  00080018          DCW      0x0008,0x0018
000114  00280008          DCW      0x0028,0x0008
000118  00080008          DCW      0x0008,0x0008
00011c  00080008          DCW      0x0008,0x0008
000120  00380044          DCW      0x0038,0x0044
000124  00000004          DCW      0x0000,0x0004
000128  00080010          DCW      0x0008,0x0010
00012c  0020007c          DCW      0x0020,0x007c
000130  00180024          DCW      0x0018,0x0024
000134  00040018          DCW      0x0004,0x0018
000138  00040004          DCW      0x0004,0x0004
00013c  00240018          DCW      0x0024,0x0018
000140  0004000c          DCW      0x0004,0x000c
000144  00140024          DCW      0x0014,0x0024
000148  0044007e          DCW      0x0044,0x007e
00014c  00040004          DCW      0x0004,0x0004
000150  003c0020          DCW      0x003c,0x0020
000154  00200038          DCW      0x0020,0x0038
000158  00040004          DCW      0x0004,0x0004
00015c  00240018          DCW      0x0024,0x0018
000160  00180024          DCW      0x0018,0x0024
000164  00200038          DCW      0x0020,0x0038
000168  00240024          DCW      0x0024,0x0024
00016c  00240018          DCW      0x0024,0x0018
000170  003c0004          DCW      0x003c,0x0004
000174  00080008          DCW      0x0008,0x0008
000178  00080010          DCW      0x0008,0x0010
00017c  00100010          DCW      0x0010,0x0010
000180  00180024          DCW      0x0018,0x0024
000184  00240018          DCW      0x0024,0x0018
000188  00240024          DCW      0x0024,0x0024
00018c  00240018          DCW      0x0024,0x0018
000190  00180024          DCW      0x0018,0x0024
000194  00240024          DCW      0x0024,0x0024
000198  001c0004          DCW      0x001c,0x0004
00019c  00240018          DCW      0x0024,0x0018
0001a0  00000000          DCW      0x0000,0x0000
0001a4  00100000          DCW      0x0010,0x0000
0001a8  00000010          DCW      0x0000,0x0010
0001ac  00000000          DCW      0x0000,0x0000
0001b0  00000000          DCW      0x0000,0x0000
0001b4  00080000          DCW      0x0008,0x0000
0001b8  00000008          DCW      0x0000,0x0008
0001bc  00100000          DCW      0x0010,0x0000
0001c0  00000000          DCW      0x0000,0x0000
0001c4  00040018          DCW      0x0004,0x0018
0001c8  00200018          DCW      0x0020,0x0018
0001cc  00040000          DCW      0x0004,0x0000
0001d0  00000000          DCW      0x0000,0x0000
0001d4  0000003c          DCW      0x0000,0x003c
0001d8  0000003c          DCW      0x0000,0x003c
0001dc  00000000          DCW      0x0000,0x0000
0001e0  00000000          DCW      0x0000,0x0000
0001e4  00200018          DCW      0x0020,0x0018
0001e8  00040018          DCW      0x0004,0x0018
0001ec  00200000          DCW      0x0020,0x0000
0001f0  00180024          DCW      0x0018,0x0024
0001f4  00040008          DCW      0x0004,0x0008
0001f8  00100010          DCW      0x0010,0x0010
0001fc  00000010          DCW      0x0000,0x0010
000200  003c0042          DCW      0x003c,0x0042
000204  009900a5          DCW      0x0099,0x00a5
000208  00a5009d          DCW      0x00a5,0x009d
00020c  00420038          DCW      0x0042,0x0038
000210  00380044          DCW      0x0038,0x0044
000214  00440044          DCW      0x0044,0x0044
000218  007c0044          DCW      0x007c,0x0044
00021c  00440044          DCW      0x0044,0x0044
000220  00780044          DCW      0x0078,0x0044
000224  00440078          DCW      0x0044,0x0078
000228  00440044          DCW      0x0044,0x0044
00022c  00440078          DCW      0x0044,0x0078
000230  001c0022          DCW      0x001c,0x0022
000234  00420040          DCW      0x0042,0x0040
000238  00400042          DCW      0x0040,0x0042
00023c  0022001c          DCW      0x0022,0x001c
000240  00700048          DCW      0x0070,0x0048
000244  00440044          DCW      0x0044,0x0044
000248  00440044          DCW      0x0044,0x0044
00024c  00480070          DCW      0x0048,0x0070
000250  007c0040          DCW      0x007c,0x0040
000254  0040007c          DCW      0x0040,0x007c
000258  00400040          DCW      0x0040,0x0040
00025c  0040007c          DCW      0x0040,0x007c
000260  003c0020          DCW      0x003c,0x0020
000264  00200038          DCW      0x0020,0x0038
000268  00200020          DCW      0x0020,0x0020
00026c  00200020          DCW      0x0020,0x0020
000270  001c0022          DCW      0x001c,0x0022
000274  00420040          DCW      0x0042,0x0040
000278  004e0042          DCW      0x004e,0x0042
00027c  0022001c          DCW      0x0022,0x001c
000280  00440044          DCW      0x0044,0x0044
000284  0044007c          DCW      0x0044,0x007c
000288  00440044          DCW      0x0044,0x0044
00028c  00440044          DCW      0x0044,0x0044
000290  00100010          DCW      0x0010,0x0010
000294  00100010          DCW      0x0010,0x0010
000298  00100010          DCW      0x0010,0x0010
00029c  00100010          DCW      0x0010,0x0010
0002a0  00040004          DCW      0x0004,0x0004
0002a4  00040004          DCW      0x0004,0x0004
0002a8  00040024          DCW      0x0004,0x0024
0002ac  00240018          DCW      0x0024,0x0018
0002b0  00440048          DCW      0x0044,0x0048
0002b4  00500070          DCW      0x0050,0x0070
0002b8  00500048          DCW      0x0050,0x0048
0002bc  00480044          DCW      0x0048,0x0044
0002c0  00200020          DCW      0x0020,0x0020
0002c4  00200020          DCW      0x0020,0x0020
0002c8  00200020          DCW      0x0020,0x0020
0002cc  0020003c          DCW      0x0020,0x003c
0002d0  008200c6          DCW      0x0082,0x00c6
0002d4  00c600aa          DCW      0x00c6,0x00aa
0002d8  00aa00aa          DCW      0x00aa,0x00aa
0002dc  00aa0092          DCW      0x00aa,0x0092
0002e0  00420062          DCW      0x0042,0x0062
0002e4  00520052          DCW      0x0052,0x0052
0002e8  004a004a          DCW      0x004a,0x004a
0002ec  00460042          DCW      0x0046,0x0042
0002f0  00180024          DCW      0x0018,0x0024
0002f4  00420042          DCW      0x0042,0x0042
0002f8  00420042          DCW      0x0042,0x0042
0002fc  00240018          DCW      0x0024,0x0018
000300  00780044          DCW      0x0078,0x0044
000304  00440044          DCW      0x0044,0x0044
000308  00780040          DCW      0x0078,0x0040
00030c  00400040          DCW      0x0040,0x0040
000310  00180024          DCW      0x0018,0x0024
000314  00420042          DCW      0x0042,0x0042
000318  00420042          DCW      0x0042,0x0042
00031c  002c001a          DCW      0x002c,0x001a
000320  00780044          DCW      0x0078,0x0044
000324  00440078          DCW      0x0044,0x0078
000328  00500048          DCW      0x0050,0x0048
00032c  00440042          DCW      0x0044,0x0042
000330  00380044          DCW      0x0038,0x0044
000334  00400038          DCW      0x0040,0x0038
000338  00040044          DCW      0x0004,0x0044
00033c  00440038          DCW      0x0044,0x0038
000340  007c0010          DCW      0x007c,0x0010
000344  00100010          DCW      0x0010,0x0010
000348  00100010          DCW      0x0010,0x0010
00034c  00100010          DCW      0x0010,0x0010
000350  00420042          DCW      0x0042,0x0042
000354  00420042          DCW      0x0042,0x0042
000358  00420042          DCW      0x0042,0x0042
00035c  00240018          DCW      0x0024,0x0018
000360  00440044          DCW      0x0044,0x0044
000364  00280028          DCW      0x0028,0x0028
000368  00280028          DCW      0x0028,0x0028
00036c  00280010          DCW      0x0028,0x0010
000370  009200aa          DCW      0x0092,0x00aa
000374  00aa00aa          DCW      0x00aa,0x00aa
000378  00aa00aa          DCW      0x00aa,0x00aa
00037c  00aa0044          DCW      0x00aa,0x0044
000380  00420024          DCW      0x0042,0x0024
000384  00240018          DCW      0x0024,0x0018
000388  00180024          DCW      0x0018,0x0024
00038c  00240042          DCW      0x0024,0x0042
000390  00440028          DCW      0x0044,0x0028
000394  00280010          DCW      0x0028,0x0010
000398  00100010          DCW      0x0010,0x0010
00039c  00100010          DCW      0x0010,0x0010
0003a0  007c0004          DCW      0x007c,0x0004
0003a4  00080010          DCW      0x0008,0x0010
0003a8  00100020          DCW      0x0010,0x0020
0003ac  0040007c          DCW      0x0040,0x007c
0003b0  001c0010          DCW      0x001c,0x0010
0003b4  00100010          DCW      0x0010,0x0010
0003b8  00100010          DCW      0x0010,0x0010
0003bc  0010001c          DCW      0x0010,0x001c
0003c0  00100010          DCW      0x0010,0x0010
0003c4  00080008          DCW      0x0008,0x0008
0003c8  00080008          DCW      0x0008,0x0008
0003cc  00040004          DCW      0x0004,0x0004
0003d0  001c0004          DCW      0x001c,0x0004
0003d4  00040004          DCW      0x0004,0x0004
0003d8  00040004          DCW      0x0004,0x0004
0003dc  0004001c          DCW      0x0004,0x001c
0003e0  00100028          DCW      0x0010,0x0028
0003e4  00440000          DCW      0x0044,0x0000
0003e8  00000000          DCW      0x0000,0x0000
0003ec  00000000          DCW      0x0000,0x0000
0003f0  00000000          DCW      0x0000,0x0000
0003f4  00000000          DCW      0x0000,0x0000
0003f8  00000000          DCW      0x0000,0x0000
0003fc  00000000          DCW      0x0000,0x0000
000400  00200010          DCW      0x0020,0x0010
000404  00100000          DCW      0x0010,0x0000
000408  00000000          DCW      0x0000,0x0000
00040c  00000000          DCW      0x0000,0x0000
000410  00000000          DCW      0x0000,0x0000
000414  00180004          DCW      0x0018,0x0004
000418  001c0024          DCW      0x001c,0x0024
00041c  0024001c          DCW      0x0024,0x001c
000420  00200020          DCW      0x0020,0x0020
000424  00280034          DCW      0x0028,0x0034
000428  00240024          DCW      0x0024,0x0024
00042c  00340028          DCW      0x0034,0x0028
000430  00000000          DCW      0x0000,0x0000
000434  00180024          DCW      0x0018,0x0024
000438  00200020          DCW      0x0020,0x0020
00043c  00240018          DCW      0x0024,0x0018
000440  00040004          DCW      0x0004,0x0004
000444  0014002c          DCW      0x0014,0x002c
000448  00240024          DCW      0x0024,0x0024
00044c  002c0014          DCW      0x002c,0x0014
000450  00000000          DCW      0x0000,0x0000
000454  00180024          DCW      0x0018,0x0024
000458  003c0020          DCW      0x003c,0x0020
00045c  00240018          DCW      0x0024,0x0018
000460  00000018          DCW      0x0000,0x0018
000464  00100010          DCW      0x0010,0x0010
000468  00180010          DCW      0x0018,0x0010
00046c  00100010          DCW      0x0010,0x0010
000470  00000018          DCW      0x0000,0x0018
000474  00240024          DCW      0x0024,0x0024
000478  00180004          DCW      0x0018,0x0004
00047c  00240018          DCW      0x0024,0x0018
000480  00200020          DCW      0x0020,0x0020
000484  00280034          DCW      0x0028,0x0034
000488  00240024          DCW      0x0024,0x0024
00048c  00240024          DCW      0x0024,0x0024
000490  00100000          DCW      0x0010,0x0000
000494  00100010          DCW      0x0010,0x0010
000498  00100010          DCW      0x0010,0x0010
00049c  00100010          DCW      0x0010,0x0010
0004a0  00080000          DCW      0x0008,0x0000
0004a4  00080008          DCW      0x0008,0x0008
0004a8  00080008          DCW      0x0008,0x0008
0004ac  00280010          DCW      0x0028,0x0010
0004b0  00200020          DCW      0x0020,0x0020
0004b4  00240028          DCW      0x0024,0x0028
0004b8  00300028          DCW      0x0030,0x0028
0004bc  00240024          DCW      0x0024,0x0024
0004c0  00100010          DCW      0x0010,0x0010
0004c4  00100010          DCW      0x0010,0x0010
0004c8  00100010          DCW      0x0010,0x0010
0004cc  00100010          DCW      0x0010,0x0010
0004d0  00000000          DCW      0x0000,0x0000
0004d4  00a600da          DCW      0x00a6,0x00da
0004d8  00920092          DCW      0x0092,0x0092
0004dc  00920092          DCW      0x0092,0x0092
0004e0  00000000          DCW      0x0000,0x0000
0004e4  00280034          DCW      0x0028,0x0034
0004e8  00240024          DCW      0x0024,0x0024
0004ec  00240024          DCW      0x0024,0x0024
0004f0  00000000          DCW      0x0000,0x0000
0004f4  00180024          DCW      0x0018,0x0024
0004f8  00240024          DCW      0x0024,0x0024
0004fc  00240018          DCW      0x0024,0x0018
000500  00000028          DCW      0x0000,0x0028
000504  00340024          DCW      0x0034,0x0024
000508  00380020          DCW      0x0038,0x0020
00050c  00200020          DCW      0x0020,0x0020
000510  00000014          DCW      0x0000,0x0014
000514  002c0024          DCW      0x002c,0x0024
000518  001c0004          DCW      0x001c,0x0004
00051c  00040004          DCW      0x0004,0x0004
000520  00000000          DCW      0x0000,0x0000
000524  002c0030          DCW      0x002c,0x0030
000528  00200020          DCW      0x0020,0x0020
00052c  00200020          DCW      0x0020,0x0020
000530  00000000          DCW      0x0000,0x0000
000534  00180024          DCW      0x0018,0x0024
000538  00100008          DCW      0x0010,0x0008
00053c  00240018          DCW      0x0024,0x0018
000540  00000010          DCW      0x0000,0x0010
000544  00380010          DCW      0x0038,0x0010
000548  00100010          DCW      0x0010,0x0010
00054c  00100018          DCW      0x0010,0x0018
000550  00000000          DCW      0x0000,0x0000
000554  00240024          DCW      0x0024,0x0024
000558  00240024          DCW      0x0024,0x0024
00055c  002c0014          DCW      0x002c,0x0014
000560  00000000          DCW      0x0000,0x0000
000564  00440044          DCW      0x0044,0x0044
000568  00280028          DCW      0x0028,0x0028
00056c  00280010          DCW      0x0028,0x0010
000570  00000000          DCW      0x0000,0x0000
000574  009200aa          DCW      0x0092,0x00aa
000578  00aa00aa          DCW      0x00aa,0x00aa
00057c  00aa0044          DCW      0x00aa,0x0044
000580  00000000          DCW      0x0000,0x0000
000584  00440028          DCW      0x0044,0x0028
000588  00100010          DCW      0x0010,0x0010
00058c  00280044          DCW      0x0028,0x0044
000590  00000028          DCW      0x0000,0x0028
000594  00280028          DCW      0x0028,0x0028
000598  00100010          DCW      0x0010,0x0010
00059c  00100010          DCW      0x0010,0x0010
0005a0  00000000          DCW      0x0000,0x0000
0005a4  003c0004          DCW      0x003c,0x0004
0005a8  00080010          DCW      0x0008,0x0010
0005ac  0020003c          DCW      0x0020,0x003c
0005b0  00000008          DCW      0x0000,0x0008
0005b4  00100010          DCW      0x0010,0x0010
0005b8  00200010          DCW      0x0020,0x0010
0005bc  00100008          DCW      0x0010,0x0008
0005c0  00100010          DCW      0x0010,0x0010
0005c4  00100010          DCW      0x0010,0x0010
0005c8  00100010          DCW      0x0010,0x0010
0005cc  00100010          DCW      0x0010,0x0010
0005d0  00000010          DCW      0x0000,0x0010
0005d4  00080008          DCW      0x0008,0x0008
0005d8  00040008          DCW      0x0004,0x0008
0005dc  00080010          DCW      0x0008,0x0010
0005e0  00000000          DCW      0x0000,0x0000
0005e4  00000060          DCW      0x0000,0x0060
0005e8  0092000c          DCW      0x0092,0x000c
0005ec  00000000          DCW      0x0000,0x0000
0005f0  00ff00ff          DCW      0x00ff,0x00ff
0005f4  00ff00ff          DCW      0x00ff,0x00ff
0005f8  00ff00ff          DCW      0x00ff,0x00ff
0005fc  00ff00ff          DCW      0x00ff,0x00ff

                          AREA ||.data||, DATA, ALIGN=2

                  TextColor
000000  0000              DCW      0x0000
                  BackColor
000002  ffff              DCW      0xffff
                  LCD_Currentfonts
                          DCD      0x00000000
                  Font16x24
                          DCD      ASCII16x24_Table
00000c  00100018          DCW      0x0010,0x0018

                          AREA ||area_number.50||, DATA, ALIGN=2

                          EXPORTAS ||area_number.50||, ||.data||
                  Font12x12
                          DCD      ASCII12x12_Table
000004  000c000c          DCW      0x000c,0x000c

                          AREA ||area_number.51||, DATA, ALIGN=2

                          EXPORTAS ||area_number.51||, ||.data||
                  Font8x12
                          DCD      ASCII8x12_Table
000004  0008000c          DCW      0x0008,0x000c

                          AREA ||area_number.52||, DATA, ALIGN=2

                          EXPORTAS ||area_number.52||, ||.data||
                  Font8x8
                          DCD      ASCII8x8_Table
000004  00080008          DCW      0x0008,0x0008

;*** Start embedded assembler ***

#line 1 "..\\..\\..\\..\\..\\Utilities\\STM32_EVAL\\STM3240_41_G_EVAL\\stm324xg_eval_lcd.c"
	AREA ||.rev16_text||, CODE, READONLY
	THUMB
	EXPORT |__asm___19_stm324xg_eval_lcd_c_09e7592f____REV16|
#line 114 "C:\\Keil\\ARM\\CMSIS\\Include\\core_cmInstr.h"
|__asm___19_stm324xg_eval_lcd_c_09e7592f____REV16| PROC
#line 115

 rev16 r0, r0
 bx lr
	ENDP
	AREA ||.revsh_text||, CODE, READONLY
	THUMB
	EXPORT |__asm___19_stm324xg_eval_lcd_c_09e7592f____REVSH|
#line 128
|__asm___19_stm324xg_eval_lcd_c_09e7592f____REVSH| PROC
#line 129

 revsh r0, r0
 bx lr
	ENDP

;*** End   embedded assembler ***
